MODULE Linux x86_64 B947A75331CBC531F2FF6DD3B640CA450 main
FUNC 1a30 29 0 sys_close
FUNC 1a5a 4a 0 google_breakpad::PageAllocator::FreeAll
FUNC 1aa4 20 0 google_breakpad::ProcCpuInfoReader::GetValueAndLen
FUNC 1ac4 20 0 google_breakpad::TypedMDRVA<MDRawDirectory>::CopyIndex
FUNC 1ae4 20 0 google_breakpad::TypedMDRVA<unsigned int>::AllocateObjectAndArray
FUNC 1b04 20 0 google_breakpad::TypedMDRVA<unsigned int>::CopyIndexAfterObject
FUNC 1b24 1b7 0 MinidumpWriter::WriteFile
FUNC 1cdc 68 0 MinidumpWriter::WriteProcFile
FUNC 1d44 20 0 google_breakpad::TypedMDRVA<MDString>::CopyIndexAfterObject
FUNC 1d64 20 0 google_breakpad::TypedMDRVA<MDString>::AllocateObjectAndArray
FUNC 1d84 20 0 google_breakpad::LineReader::PopLine
FUNC 1e8d 39 0 dumpCallback
FUNC 1ec6 18 0 mkcrash
FUNC 1ede b 0 crash
FUNC 1ee9 145 0 main
FUNC 202e 3d 0 __static_initialization_and_destruction_0
FUNC 206b 15 0 _GLOBAL__sub_I__Z7mkcrashv
FUNC 2080 bd 0 google_breakpad::MinidumpDescriptor::MinidumpDescriptor
FUNC 213e 12 0 google_breakpad::MinidumpDescriptor::path
FUNC 2150 54 0 google_breakpad::MinidumpDescriptor::~MinidumpDescriptor
FUNC 21b0 f8 0 google_breakpad::ExceptionHandler::InstallHandlersLocked
FUNC 22b0 6c 0 google_breakpad::ExceptionHandler::RestoreHandlersLocked
FUNC 2320 3e0 0 google_breakpad::ExceptionHandler::~ExceptionHandler
FUNC 2700 ce 0 google_breakpad::ExceptionHandler::SendContinueSignalToChild
FUNC 27d0 47f 0 google_breakpad::ExceptionHandler::GenerateDump
FUNC 2c50 194 0 google_breakpad::ExceptionHandler::HandleSignal
FUNC 2df0 42 0 google_breakpad::ExceptionHandler::HandleSignal
FUNC 2e40 17b 0 google_breakpad::ExceptionHandler::SignalHandler
FUNC 2fc0 56 0 google_breakpad::ExceptionHandler::SimulateSignalDelivery
FUNC 3020 c6 0 google_breakpad::ExceptionHandler::WaitForContinueSignal
FUNC 30f0 58 0 google_breakpad::ExceptionHandler::DoDump
FUNC 3150 28 0 google_breakpad::ExceptionHandler::ThreadEntry
FUNC 3180 163 0 google_breakpad::ExceptionHandler::WriteMinidump
FUNC 32f0 d1 0 google_breakpad::ExceptionHandler::AddMappingInfo
FUNC 33d0 5d 0 google_breakpad::ExceptionHandler::RegisterAppMemory
FUNC 3430 31 0 google_breakpad::ExceptionHandler::UnregisterAppMemory
FUNC 3470 170 0 google_breakpad::ExceptionHandler::WriteMinidumpForChild
FUNC 35e0 319 0 google_breakpad::ExceptionHandler::ExceptionHandler
FUNC 3900 169 0 google_breakpad::ExceptionHandler::WriteMinidump
FUNC 3a70 19a 0 std::vector<google_breakpad::ExceptionHandler*, std::allocator<google_breakpad::ExceptionHandler*> >::_M_insert_aux
FUNC 3c10 6f 0 google_breakpad::MinidumpDescriptor::MinidumpDescriptor
FUNC 3c80 2d7 0 google_breakpad::MinidumpDescriptor::UpdatePath
FUNC 3f60 86 0 google_breakpad::MinidumpDescriptor::operator=
FUNC 3ff0 34 0 logger::write
FUNC 4030 4d 0 MinidumpWriter::~MinidumpWriter
FUNC 4080 1e 0 google_breakpad::TypedMDRVA<MDRawDirectory>::CopyIndex
FUNC 40a0 15c9 0 MinidumpWriter::WriteThreadListStream
FUNC 5670 1fb2 0 MinidumpWriter::Dump
FUNC 7630 3e0 0 WriteMinidumpImpl
FUNC 7a10 e1 0 google_breakpad::WriteMinidump
FUNC 7b00 e1 0 google_breakpad::WriteMinidump
FUNC 7bf0 2b 0 google_breakpad::WriteMinidump
FUNC 7c20 2a 0 google_breakpad::WriteMinidump
FUNC 7c50 2c 0 google_breakpad::WriteMinidump
FUNC 7c80 2b 0 google_breakpad::WriteMinidump
FUNC 7cb0 452 0 google_breakpad::WriteMinidump
FUNC 8110 302 0 google_breakpad::WriteMinidump
FUNC 8420 13f 0 google_breakpad::PageAllocator::Alloc
FUNC 8560 249 0 google_breakpad::ProcCpuInfoReader::GetNextField
FUNC 87b0 22 0 google_breakpad::TypedMDRVA<unsigned int>::~TypedMDRVA
FUNC 87e0 22 0 google_breakpad::TypedMDRVA<MDRawContextAMD64>::~TypedMDRVA
FUNC 8810 22 0 google_breakpad::TypedMDRVA<MDRawSystemInfo>::~TypedMDRVA
FUNC 8840 22 0 google_breakpad::TypedMDRVA<MDRawLinkMap>::~TypedMDRVA
FUNC 8870 22 0 google_breakpad::TypedMDRVA<MDRawDebug>::~TypedMDRVA
FUNC 88a0 307 0 std::vector<MDMemoryDescriptor, google_breakpad::PageStdAllocator<MDMemoryDescriptor> >::_M_insert_aux
FUNC 8bb0 3c4 0 std::vector<char, google_breakpad::PageStdAllocator<char> >::_M_fill_insert
FUNC 8f80 1a 0 google_breakpad::MinidumpFileWriter::MinidumpFileWriter
FUNC 8fa0 78 0 google_breakpad::MinidumpFileWriter::Open
FUNC 9020 2c 0 google_breakpad::MinidumpFileWriter::SetFile
FUNC 9050 69 0 google_breakpad::MinidumpFileWriter::Close
FUNC 90c0 15 0 google_breakpad::MinidumpFileWriter::~MinidumpFileWriter
FUNC 90e0 b6 0 google_breakpad::MinidumpFileWriter::Allocate
FUNC 91a0 ff 0 google_breakpad::MinidumpFileWriter::Copy
FUNC 92a0 b4 0 google_breakpad::MinidumpFileWriter::CopyStringToMDString
FUNC 9360 b5 0 google_breakpad::MinidumpFileWriter::CopyStringToMDString
FUNC 9420 41 0 google_breakpad::UntypedMDRVA::Allocate
FUNC 9470 88 0 google_breakpad::UntypedMDRVA::Copy
FUNC 9500 c1 0 google_breakpad::MinidumpFileWriter::WriteMemory
FUNC 95d0 5 0 google_breakpad::MinidumpFileWriter::WriteString
FUNC 95e0 5 0 google_breakpad::MinidumpFileWriter::WriteString
FUNC 95f0 22 0 google_breakpad::TypedMDRVA<MDString>::~TypedMDRVA
FUNC 9620 1d9 0 google_breakpad::MinidumpFileWriter::WriteStringCore<wchar_t>
FUNC 9800 1d7 0 google_breakpad::MinidumpFileWriter::WriteStringCore<char>
FUNC 99e0 91 0 google_breakpad::UTF8ToUTF16Char
FUNC 9a80 56 0 google_breakpad::UTF32ToUTF16Char
FUNC 9ae0 15b 0 google_breakpad::UTF16ToUTF8
FUNC 9c40 e3 0 google_breakpad::UTF32ToUTF16
FUNC 9d30 e3 0 google_breakpad::UTF8ToUTF16
FUNC 9e20 283 0 std::vector<short unsigned int, std::allocator<short unsigned int> >::_M_fill_insert
FUNC a0b0 73 0 CreateGUID
FUNC a130 c0 0 GUIDToString
FUNC a1f0 16 0 GUIDGenerator::InitOnceImpl
FUNC a210 1e 0 my_strlen
FUNC a230 33 0 my_strcmp
FUNC a270 56 0 my_strncmp
FUNC a2d0 4c 0 my_strtoui
FUNC a320 36 0 my_uint_len
FUNC a360 3a 0 my_uitos
FUNC a3a0 2b 0 my_strchr
FUNC a3d0 26 0 my_strrchr
FUNC a400 2b 0 my_memchr
FUNC a430 64 0 my_read_hex_ptr
FUNC a4a0 3a 0 my_read_decimal_ptr
FUNC a4e0 1f 0 my_memset
FUNC a500 38 0 my_strlcpy
FUNC a540 45 0 my_strlcat
FUNC a590 6c 0 my_isspace
FUNC a600 f 0 google_breakpad::::CrashGenerationClientImpl::~CrashGenerationClientImpl
FUNC a610 13 0 google_breakpad::::CrashGenerationClientImpl::~CrashGenerationClientImpl
FUNC a630 212 0 google_breakpad::::CrashGenerationClientImpl::RequestDump
FUNC a850 24 0 google_breakpad::CrashGenerationClient::TryCreate
FUNC a880 f 0 google_breakpad::CrashGenerationClient::~CrashGenerationClient
FUNC a890 13 0 google_breakpad::CrashGenerationClient::~CrashGenerationClient
FUNC a8b0 69 0 google_breakpad::LinuxDumper::~LinuxDumper
FUNC a920 12 0 google_breakpad::LinuxDumper::~LinuxDumper
FUNC a940 1ec 0 google_breakpad::LinuxDumper::ElfFileSoName
FUNC ab30 131 0 google_breakpad::LinuxDumper::ReadAuxv
FUNC ac70 32 0 google_breakpad::LinuxDumper::Init
FUNC acb0 4b 0 google_breakpad::LinuxDumper::FindMapping
FUNC ad00 73 0 google_breakpad::LinuxDumper::GetStackInfo
FUNC ad80 214 0 google_breakpad::LinuxDumper::HandleDeletedFileInMapping
FUNC afa0 35a 0 google_breakpad::LinuxDumper::ElfFileIdentifierForMapping
FUNC b300 4ca 0 google_breakpad::LinuxDumper::LinuxDumper
FUNC b7d0 83d 0 google_breakpad::LinuxDumper::EnumerateMappings
FUNC c010 2eb 0 std::vector<google_breakpad::MappingInfo*, google_breakpad::PageStdAllocator<google_breakpad::MappingInfo*> >::_M_insert_aux
FUNC c300 42c 0 std::vector<long unsigned int, google_breakpad::PageStdAllocator<long unsigned int> >::_M_fill_insert
FUNC c730 438 0 std::vector<google_breakpad::MappingInfo*, google_breakpad::PageStdAllocator<google_breakpad::MappingInfo*> >::_M_fill_insert
FUNC cb70 3 0 google_breakpad::LinuxPtraceDumper::IsPostMortem
FUNC cb80 b7 0 google_breakpad::LinuxPtraceDumper::CopyFromProcess
FUNC cc40 c8 0 google_breakpad::LinuxPtraceDumper::BuildProcPath
FUNC cd10 522 0 google_breakpad::LinuxPtraceDumper::GetThreadInfoByIndex
FUNC d240 ba 0 google_breakpad::LinuxPtraceDumper::ThreadsResume
FUNC d300 20 0 google_breakpad::LinuxPtraceDumper::LinuxPtraceDumper
FUNC d320 37e 0 google_breakpad::LinuxPtraceDumper::EnumerateThreads
FUNC d6a0 22c 0 google_breakpad::LinuxPtraceDumper::ThreadsSuspend
FUNC d8d0 13 0 google_breakpad::LinuxPtraceDumper::~LinuxPtraceDumper
FUNC d8f0 20 0 google_breakpad::LinuxPtraceDumper::~LinuxPtraceDumper
FUNC d910 2e7 0 std::vector<int, google_breakpad::PageStdAllocator<int> >::_M_insert_aux
FUNC dc00 42c 0 std::vector<int, google_breakpad::PageStdAllocator<int> >::_M_fill_insert
FUNC e030 d7 0 isLegalUTF8
FUNC e110 105 0 ConvertUTF32toUTF16
FUNC e220 e6 0 ConvertUTF16toUTF32
FUNC e310 1fa 0 ConvertUTF16toUTF8
FUNC e510 2b 0 isLegalUTF8Sequence
FUNC e540 27f 0 ConvertUTF8toUTF16
FUNC e7c0 1c3 0 ConvertUTF32toUTF8
FUNC e990 2a7 0 ConvertUTF8toUTF32
FUNC ec40 1f 0 google_breakpad::IsValidElf
FUNC ec60 5 0 google_breakpad::ElfClass
FUNC ec70 44f 0 google_breakpad::FindElfSection
FUNC f0c0 26f 0 google_breakpad::FindElfSegment
FUNC f330 13 0 google_breakpad::FileID::FileID
FUNC f350 1ff 0 google_breakpad::FileID::ElfFileIdentifierFromMappedFile
FUNC f550 5f 0 google_breakpad::FileID::ElfFileIdentifier
FUNC f5b0 11c 0 google_breakpad::FileID::ConvertIdentifierToString
FUNC f6d0 10 0 google_breakpad::MemoryMappedFile::MemoryMappedFile
FUNC f6e0 4b 0 google_breakpad::MemoryMappedFile::Unmap
FUNC f730 5 0 google_breakpad::MemoryMappedFile::~MemoryMappedFile
FUNC f740 17f 0 google_breakpad::MemoryMappedFile::Map
FUNC f8c0 14 0 google_breakpad::MemoryMappedFile::MemoryMappedFile
FUNC f8e0 40 0 google_breakpad::SafeReadLink
STACK CFI INIT 1da4 2a .cfa: $rsp 8 + .ra: .cfa -8 + ^
STACK CFI INIT 1630 400 .cfa: $rsp 16 + .ra: .cfa -8 + ^
STACK CFI 1636 .cfa: $rsp 24 +
STACK CFI INIT 2080 bd .cfa: $rsp 8 + .ra: .cfa -8 + ^
STACK CFI 2081 $rbp: .cfa -16 + ^ .cfa: $rsp 16 +
STACK CFI 2084 .cfa: $rbp 16 +
STACK CFI 2089 $rbx: .cfa -24 + ^
STACK CFI 213c .cfa: $rsp 8 +
STACK CFI INIT 213e 12 .cfa: $rsp 8 + .ra: .cfa -8 + ^
STACK CFI 213f $rbp: .cfa -16 + ^ .cfa: $rsp 16 +
STACK CFI 2142 .cfa: $rbp 16 +
STACK CFI 214f .cfa: $rsp 8 +
STACK CFI INIT 1e8d 39 .cfa: $rsp 8 + .ra: .cfa -8 + ^
STACK CFI 1e8e $rbp: .cfa -16 + ^ .cfa: $rsp 16 +
STACK CFI 1e91 .cfa: $rbp 16 +
STACK CFI 1ec5 .cfa: $rsp 8 +
STACK CFI INIT 1ec6 18 .cfa: $rsp 8 + .ra: .cfa -8 + ^
STACK CFI 1ec7 $rbp: .cfa -16 + ^ .cfa: $rsp 16 +
STACK CFI 1eca .cfa: $rbp 16 +
STACK CFI 1edd .cfa: $rsp 8 +
STACK CFI INIT 1ede b .cfa: $rsp 8 + .ra: .cfa -8 + ^
STACK CFI 1edf $rbp: .cfa -16 + ^ .cfa: $rsp 16 +
STACK CFI 1ee2 .cfa: $rbp 16 +
STACK CFI 1ee8 .cfa: $rsp 8 +
STACK CFI INIT 2150 54 .cfa: $rsp 8 + .ra: .cfa -8 + ^
STACK CFI 2151 $rbp: .cfa -16 + ^ .cfa: $rsp 16 +
STACK CFI 2154 .cfa: $rbp 16 +
STACK CFI 2159 $rbx: .cfa -24 + ^
STACK CFI 21a3 .cfa: $rsp 8 +
STACK CFI INIT 1ee9 145 .cfa: $rsp 8 + .ra: .cfa -8 + ^
STACK CFI 1eea $rbp: .cfa -16 + ^ .cfa: $rsp 16 +
STACK CFI 1eed .cfa: $rbp 16 +
STACK CFI 1ef5 $rbx: .cfa -24 + ^
STACK CFI 202d .cfa: $rsp 8 +
STACK CFI INIT 202e 3d .cfa: $rsp 8 + .ra: .cfa -8 + ^
STACK CFI 202f $rbp: .cfa -16 + ^ .cfa: $rsp 16 +
STACK CFI 2032 .cfa: $rbp 16 +
STACK CFI 206a .cfa: $rsp 8 +
STACK CFI INIT 206b 15 .cfa: $rsp 8 + .ra: .cfa -8 + ^
STACK CFI 206c $rbp: .cfa -16 + ^ .cfa: $rsp 16 +
STACK CFI 206f .cfa: $rbp 16 +
STACK CFI 207f .cfa: $rsp 8 +
STACK CFI INIT 21b0 f8 .cfa: $rsp 8 + .ra: .cfa -8 + ^
STACK CFI 21bf $r13: .cfa -16 + ^ .cfa: $rsp 16 +
STACK CFI 21c1 $r12: .cfa -24 + ^ .cfa: $rsp 24 +
STACK CFI 21c9 $rbp: .cfa -32 + ^ .cfa: $rsp 32 +
STACK CFI 21d1 $rbx: .cfa -40 + ^ .cfa: $rsp 40 +
STACK CFI 21df .cfa: $rsp 208 +
STACK CFI 227b .cfa: $rsp 40 +
STACK CFI 2281 $rbx: $rbx .cfa: $rsp 32 +
STACK CFI 2282 $rbp: $rbp .cfa: $rsp 24 +
STACK CFI 2284 $r12: $r12 .cfa: $rsp 16 +
STACK CFI 2286 $r13: $r13 .cfa: $rsp 8 +
STACK CFI 2298 $r12: .cfa -24 + ^ $r13: .cfa -16 + ^ $rbp: .cfa -32 + ^ $rbx: .cfa -40 + ^ .cfa: $rsp 208 +
STACK CFI 229f .cfa: $rsp 40 +
STACK CFI 22a2 $rbx: $rbx .cfa: $rsp 32 +
STACK CFI 22a3 $rbp: $rbp .cfa: $rsp 24 +
STACK CFI 22a5 $r12: $r12 .cfa: $rsp 16 +
STACK CFI 22a7 $r13: $r13 .cfa: $rsp 8 +
STACK CFI INIT 22b0 6c .cfa: $rsp 8 + .ra: .cfa -8 + ^
STACK CFI 22bb $r13: .cfa -16 + ^ .cfa: $rsp 16 +
STACK CFI 22c4 $r12: .cfa -24 + ^ .cfa: $rsp 24 +
STACK CFI 22c5 $rbp: .cfa -32 + ^ .cfa: $rsp 32 +
STACK CFI 22cd $rbx: .cfa -40 + ^ .cfa: $rsp 40 +
STACK CFI 22d8 .cfa: $rsp 48 +
STACK CFI 2308 .cfa: $rsp 40 +
STACK CFI 2309 $rbx: $rbx .cfa: $rsp 32 +
STACK CFI 230a $rbp: $rbp .cfa: $rsp 24 +
STACK CFI 230c $r12: $r12 .cfa: $rsp 16 +
STACK CFI 230e $r13: $r13 .cfa: $rsp 8 +
STACK CFI 2310 $r12: .cfa -24 + ^ $r13: .cfa -16 + ^ $rbp: .cfa -32 + ^ $rbx: .cfa -40 + ^ .cfa: $rsp 48 +
STACK CFI INIT 2320 3e0 .cfa: $rsp 8 + .ra: .cfa -8 + ^
STACK CFI 2322 $r14: .cfa -16 + ^ .cfa: $rsp 16 +
STACK CFI 2324 $r13: .cfa -24 + ^ .cfa: $rsp 24 +
STACK CFI 2326 $r12: .cfa -32 + ^ .cfa: $rsp 32 +
STACK CFI 2327 $rbp: .cfa -40 + ^ .cfa: $rsp 40 +
STACK CFI 2328 $rbx: .cfa -48 + ^ .cfa: $rsp 48 +
STACK CFI 232f .cfa: $rsp 112 +
STACK CFI 24bc .cfa: $rsp 48 +
STACK CFI 24bd .cfa: $rsp 40 +
STACK CFI 24be .cfa: $rsp 32 +
STACK CFI 24c0 .cfa: $rsp 24 +
STACK CFI 24c2 .cfa: $rsp 16 +
STACK CFI 24c4 .cfa: $rsp 8 +
STACK CFI 24c8 .cfa: $rsp 112 +
STACK CFI INIT 2700 ce .cfa: $rsp 8 + .ra: .cfa -8 + ^
STACK CFI 2702 $r15: .cfa -16 + ^ .cfa: $rsp 16 +
STACK CFI 2704 $r14: .cfa -24 + ^ .cfa: $rsp 24 +
STACK CFI 2709 $r13: .cfa -32 + ^ .cfa: $rsp 32 +
STACK CFI 2712 $r12: .cfa -40 + ^ .cfa: $rsp 40 +
STACK CFI 2719 $rbp: .cfa -48 + ^ .cfa: $rsp 48 +
STACK CFI 271f $rbx: .cfa -56 + ^ .cfa: $rsp 56 +
STACK CFI 2723 .cfa: $rsp 64 +
STACK CFI 278d .cfa: $rsp 56 +
STACK CFI 279a .cfa: $rsp 48 +
STACK CFI 279b .cfa: $rsp 40 +
STACK CFI 279d .cfa: $rsp 32 +
STACK CFI 279f .cfa: $rsp 24 +
STACK CFI 27a1 .cfa: $rsp 16 +
STACK CFI 27a3 .cfa: $rsp 8 +
STACK CFI 27b0 .cfa: $rsp 64 +
STACK CFI 27b9 .cfa: $rsp 56 +
STACK CFI 27ba .cfa: $rsp 48 +
STACK CFI 27bb .cfa: $rsp 40 +
STACK CFI 27bd .cfa: $rsp 32 +
STACK CFI 27bf .cfa: $rsp 24 +
STACK CFI 27c1 .cfa: $rsp 16 +
STACK CFI 27c3 .cfa: $rsp 8 +
STACK CFI 27c4 .cfa: $rsp 64 +
STACK CFI INIT 27d0 47f .cfa: $rsp 8 + .ra: .cfa -8 + ^
STACK CFI 27d2 $r15: .cfa -16 + ^ .cfa: $rsp 16 +
STACK CFI 27d4 $r14: .cfa -24 + ^ .cfa: $rsp 24 +
STACK CFI 27d6 $r13: .cfa -32 + ^ .cfa: $rsp 32 +
STACK CFI 27d8 $r12: .cfa -40 + ^ .cfa: $rsp 40 +
STACK CFI 27d9 $rbp: .cfa -48 + ^ .cfa: $rsp 48 +
STACK CFI 27dd $rbx: .cfa -56 + ^ .cfa: $rsp 56 +
STACK CFI 27e4 .cfa: $rsp 144 +
STACK CFI 27fe .cfa: $rsp 56 +
STACK CFI 2801 .cfa: $rsp 48 +
STACK CFI 2802 .cfa: $rsp 40 +
STACK CFI 2804 .cfa: $rsp 32 +
STACK CFI 2806 .cfa: $rsp 24 +
STACK CFI 2808 .cfa: $rsp 16 +
STACK CFI 280a .cfa: $rsp 8 +
STACK CFI 2810 .cfa: $rsp 144 +
STACK CFI INIT 2c50 194 .cfa: $rsp 8 + .ra: .cfa -8 + ^
STACK CFI 2c52 $r13: .cfa -16 + ^ .cfa: $rsp 16 +
STACK CFI 2c54 $r12: .cfa -24 + ^ .cfa: $rsp 24 +
STACK CFI 2c58 $rbp: .cfa -32 + ^ .cfa: $rsp 32 +
STACK CFI 2c5c $rbx: .cfa -40 + ^ .cfa: $rsp 40 +
STACK CFI 2c66 .cfa: $rsp 1632 +
STACK CFI 2da0 .cfa: $rsp 40 +
STACK CFI 2da1 .cfa: $rsp 32 +
STACK CFI 2da2 .cfa: $rsp 24 +
STACK CFI 2da4 .cfa: $rsp 16 +
STACK CFI 2da6 .cfa: $rsp 8 +
STACK CFI 2db0 .cfa: $rsp 1632 +
STACK CFI INIT 2df0 42 .cfa: $rsp 8 + .ra: .cfa -8 + ^
STACK CFI 2df2 $r12: .cfa -16 + ^ .cfa: $rsp 16 +
STACK CFI 2df6 $rbp: .cfa -24 + ^ .cfa: $rsp 24 +
STACK CFI 2dfa $rbx: .cfa -32 + ^ .cfa: $rsp 32 +
STACK CFI 2e10 .cfa: $rsp 24 +
STACK CFI 2e11 .cfa: $rsp 16 +
STACK CFI 2e15 .cfa: $rsp 8 +
STACK CFI 2e20 .cfa: $rsp 32 +
STACK CFI 2e2a .cfa: $rsp 24 +
STACK CFI 2e2b .cfa: $rsp 16 +
STACK CFI 2e2d .cfa: $rsp 8 +
STACK CFI INIT 2e40 17b .cfa: $rsp 8 + .ra: .cfa -8 + ^
STACK CFI 2e42 $r15: .cfa -16 + ^ .cfa: $rsp 16 +
STACK CFI 2e44 $r14: .cfa -24 + ^ .cfa: $rsp 24 +
STACK CFI 2e46 $r13: .cfa -32 + ^ .cfa: $rsp 32 +
STACK CFI 2e4b $r12: .cfa -40 + ^ .cfa: $rsp 40 +
STACK CFI 2e4f $rbp: .cfa -48 + ^ .cfa: $rsp 48 +
STACK CFI 2e52 $rbx: .cfa -56 + ^ .cfa: $rsp 56 +
STACK CFI 2e59 .cfa: $rsp 224 +
STACK CFI 2f04 .cfa: $rsp 56 +
STACK CFI 2f05 .cfa: $rsp 48 +
STACK CFI 2f06 .cfa: $rsp 40 +
STACK CFI 2f08 .cfa: $rsp 32 +
STACK CFI 2f0a .cfa: $rsp 24 +
STACK CFI 2f0c .cfa: $rsp 16 +
STACK CFI 2f0e .cfa: $rsp 8 +
STACK CFI 2f10 .cfa: $rsp 224 +
STACK CFI INIT 2fc0 56 .cfa: $rsp 8 + .ra: .cfa -8 + ^
STACK CFI 2fc7 .cfa: $rsp 1104 +
STACK CFI 3015 .cfa: $rsp 8 +
STACK CFI INIT 3020 c6 .cfa: $rsp 8 + .ra: .cfa -8 + ^
STACK CFI 3022 $r15: .cfa -16 + ^ .cfa: $rsp 16 +
STACK CFI 3024 $r14: .cfa -24 + ^ .cfa: $rsp 24 +
STACK CFI 3029 $r13: .cfa -32 + ^ .cfa: $rsp 32 +
STACK CFI 302b $r12: .cfa -40 + ^ .cfa: $rsp 40 +
STACK CFI 3032 $rbp: .cfa -48 + ^ .cfa: $rsp 48 +
STACK CFI 3035 $rbx: .cfa -56 + ^ .cfa: $rsp 56 +
STACK CFI 3039 .cfa: $rsp 80 +
STACK CFI 30b6 .cfa: $rsp 56 +
STACK CFI 30b7 .cfa: $rsp 48 +
STACK CFI 30b8 .cfa: $rsp 40 +
STACK CFI 30ba .cfa: $rsp 32 +
STACK CFI 30bc .cfa: $rsp 24 +
STACK CFI 30be .cfa: $rsp 16 +
STACK CFI 30c0 .cfa: $rsp 8 +
STACK CFI 30c8 .cfa: $rsp 80 +
STACK CFI 30d1 .cfa: $rsp 56 +
STACK CFI 30d2 .cfa: $rsp 48 +
STACK CFI 30d3 .cfa: $rsp 40 +
STACK CFI 30d5 .cfa: $rsp 32 +
STACK CFI 30d7 .cfa: $rsp 24 +
STACK CFI 30d9 .cfa: $rsp 16 +
STACK CFI 30db .cfa: $rsp 8 +
STACK CFI 30dc .cfa: $rsp 80 +
STACK CFI INIT 30f0 58 .cfa: $rsp 8 + .ra: .cfa -8 + ^
STACK CFI 30f4 .cfa: $rsp 32 +
STACK CFI 3124 .cfa: $rsp 8 +
STACK CFI 3128 .cfa: $rsp 32 +
STACK CFI 3147 .cfa: $rsp 8 +
STACK CFI INIT 3150 28 .cfa: $rsp 8 + .ra: .cfa -8 + ^
STACK CFI 3151 $rbx: .cfa -16 + ^ .cfa: $rsp 16 +
STACK CFI 3177 .cfa: $rsp 8 +
STACK CFI INIT 3180 163 .cfa: $rsp 8 + .ra: .cfa -8 + ^
STACK CFI 3181 $rbx: .cfa -16 + ^ .cfa: $rsp 16 +
STACK CFI 3188 .cfa: $rsp 1616 +
STACK CFI 31ec .cfa: $rsp 16 +
STACK CFI 31ed .cfa: $rsp 8 +
STACK CFI 31f0 .cfa: $rsp 1616 +
STACK CFI 32b7 .cfa: $rsp 16 +
STACK CFI 32b8 .cfa: $rsp 8 +
STACK CFI 32c0 .cfa: $rsp 1616 +
STACK CFI INIT 32f0 d1 .cfa: $rsp 8 + .ra: .cfa -8 + ^
STACK CFI 32f2 $r13: .cfa -16 + ^ .cfa: $rsp 16 +
STACK CFI 32fc $r12: .cfa -24 + ^ .cfa: $rsp 24 +
STACK CFI 3304 $rbp: .cfa -32 + ^ .cfa: $rsp 32 +
STACK CFI 3305 $rbx: .cfa -40 + ^ .cfa: $rsp 40 +
STACK CFI 330c .cfa: $rsp 640 +
STACK CFI 33ab .cfa: $rsp 40 +
STACK CFI 33b2 .cfa: $rsp 32 +
STACK CFI 33b3 .cfa: $rsp 24 +
STACK CFI 33b5 .cfa: $rsp 16 +
STACK CFI 33b7 .cfa: $rsp 8 +
STACK CFI 33bc .cfa: $rsp 640 +
STACK CFI INIT 33d0 5d .cfa: $rsp 8 + .ra: .cfa -8 + ^
STACK CFI 33d2 $r12: .cfa -16 + ^ .cfa: $rsp 16 +
STACK CFI 33d6 $rbp: .cfa -24 + ^ .cfa: $rsp 24 +
STACK CFI 33db $rbx: .cfa -32 + ^ .cfa: $rsp 32 +
STACK CFI 3417 .cfa: $rsp 24 +
STACK CFI 341e .cfa: $rsp 16 +
STACK CFI 3420 .cfa: $rsp 8 +
STACK CFI 3428 .cfa: $rsp 32 +
STACK CFI 3429 .cfa: $rsp 24 +
STACK CFI 342a .cfa: $rsp 16 +
STACK CFI 342c .cfa: $rsp 8 +
STACK CFI INIT 3430 31 .cfa: $rsp 8 + .ra: .cfa -8 + ^
STACK CFI 3431 $rbx: .cfa -16 + ^ .cfa: $rsp 16 +
STACK CFI 344f .cfa: $rsp 8 +
STACK CFI 3450 .cfa: $rsp 16 +
STACK CFI 345c .cfa: $rsp 8 +
STACK CFI INIT 3470 170 .cfa: $rsp 8 + .ra: .cfa -8 + ^
STACK CFI 3472 $r15: .cfa -16 + ^ .cfa: $rsp 16 +
STACK CFI 347a $r14: .cfa -24 + ^ .cfa: $rsp 24 +
STACK CFI 347f $r13: .cfa -32 + ^ .cfa: $rsp 32 +
STACK CFI 3484 $r12: .cfa -40 + ^ .cfa: $rsp 40 +
STACK CFI 3488 $rbp: .cfa -48 + ^ .cfa: $rsp 48 +
STACK CFI 3489 $rbx: .cfa -56 + ^ .cfa: $rsp 56 +
STACK CFI 348d .cfa: $rsp 144 +
STACK CFI 3528 .cfa: $rsp 56 +
STACK CFI 3529 .cfa: $rsp 48 +
STACK CFI 352a .cfa: $rsp 40 +
STACK CFI 352c .cfa: $rsp 32 +
STACK CFI 352e .cfa: $rsp 24 +
STACK CFI 3530 .cfa: $rsp 16 +
STACK CFI 3532 .cfa: $rsp 8 +
STACK CFI 3533 .cfa: $rsp 144 +
STACK CFI INIT 3a70 19a .cfa: $rsp 8 + .ra: .cfa -8 + ^
STACK CFI 3a72 $r14: .cfa -16 + ^ .cfa: $rsp 16 +
STACK CFI 3a74 $r13: .cfa -24 + ^ .cfa: $rsp 24 +
STACK CFI 3a76 $r12: .cfa -32 + ^ .cfa: $rsp 32 +
STACK CFI 3a77 $rbp: .cfa -40 + ^ .cfa: $rsp 40 +
STACK CFI 3a7b $rbx: .cfa -48 + ^ .cfa: $rsp 48 +
STACK CFI 3a82 .cfa: $rsp 64 +
STACK CFI 3ace .cfa: $rsp 48 +
STACK CFI 3acf .cfa: $rsp 40 +
STACK CFI 3ad0 .cfa: $rsp 32 +
STACK CFI 3ad2 .cfa: $rsp 24 +
STACK CFI 3ad4 .cfa: $rsp 16 +
STACK CFI 3ad6 .cfa: $rsp 8 +
STACK CFI 3ae0 .cfa: $rsp 64 +
STACK CFI INIT 35e0 319 .cfa: $rsp 8 + .ra: .cfa -8 + ^
STACK CFI 35e2 $r15: .cfa -16 + ^ .cfa: $rsp 16 +
STACK CFI 35e7 $r14: .cfa -24 + ^ .cfa: $rsp 24 +
STACK CFI 35ed $r13: .cfa -32 + ^ .cfa: $rsp 32 +
STACK CFI 35ef $r12: .cfa -40 + ^ .cfa: $rsp 40 +
STACK CFI 35f0 $rbp: .cfa -48 + ^ .cfa: $rsp 48 +
STACK CFI 35f1 $rbx: .cfa -56 + ^ .cfa: $rsp 56 +
STACK CFI 35f8 .cfa: $rsp 80 +
STACK CFI 36da .cfa: $rsp 56 +
STACK CFI 36db .cfa: $rsp 48 +
STACK CFI 36dc .cfa: $rsp 40 +
STACK CFI 36de .cfa: $rsp 32 +
STACK CFI 36e0 .cfa: $rsp 24 +
STACK CFI 36e2 .cfa: $rsp 16 +
STACK CFI 36e4 .cfa: $rsp 8 +
STACK CFI 36e8 .cfa: $rsp 80 +
STACK CFI INIT 3900 169 .cfa: $rsp 8 + .ra: .cfa -8 + ^
STACK CFI 3902 $r14: .cfa -16 + ^ .cfa: $rsp 16 +
STACK CFI 3907 $r13: .cfa -24 + ^ .cfa: $rsp 24 +
STACK CFI 390c $r12: .cfa -32 + ^ .cfa: $rsp 32 +
STACK CFI 390d $rbp: .cfa -40 + ^ .cfa: $rsp 40 +
STACK CFI 3914 $rbx: .cfa -48 + ^ .cfa: $rsp 48 +
STACK CFI 391b .cfa: $rsp 256 +
STACK CFI 39b7 .cfa: $rsp 48 +
STACK CFI 39bb .cfa: $rsp 40 +
STACK CFI 39bc .cfa: $rsp 32 +
STACK CFI 39be .cfa: $rsp 24 +
STACK CFI 39c0 .cfa: $rsp 16 +
STACK CFI 39c2 .cfa: $rsp 8 +
STACK CFI 39c3 .cfa: $rsp 256 +
STACK CFI INIT 3c10 6f .cfa: $rsp 8 + .ra: .cfa -8 + ^
STACK CFI 3c11 $rbp: .cfa -16 + ^ .cfa: $rsp 16 +
STACK CFI 3c19 $rbx: .cfa -24 + ^ .cfa: $rsp 24 +
STACK CFI 3c24 .cfa: $rsp 32 +
STACK CFI 3c5d .cfa: $rsp 24 +
STACK CFI 3c5e .cfa: $rsp 16 +
STACK CFI 3c5f .cfa: $rsp 8 +
STACK CFI 3c60 .cfa: $rsp 32 +
STACK CFI INIT 3c80 2d7 .cfa: $rsp 8 + .ra: .cfa -8 + ^
STACK CFI 3c82 $r14: .cfa -16 + ^ .cfa: $rsp 16 +
STACK CFI 3c84 $r13: .cfa -24 + ^ .cfa: $rsp 24 +
STACK CFI 3c86 $r12: .cfa -32 + ^ .cfa: $rsp 32 +
STACK CFI 3c87 $rbp: .cfa -40 + ^ .cfa: $rsp 40 +
STACK CFI 3c88 $rbx: .cfa -48 + ^ .cfa: $rsp 48 +
STACK CFI 3c8f .cfa: $rsp 176 +
STACK CFI 3e19 .cfa: $rsp 48 +
STACK CFI 3e1a .cfa: $rsp 40 +
STACK CFI 3e1b .cfa: $rsp 32 +
STACK CFI 3e1d .cfa: $rsp 24 +
STACK CFI 3e1f .cfa: $rsp 16 +
STACK CFI 3e21 .cfa: $rsp 8 +
STACK CFI 3e22 .cfa: $rsp 176 +
STACK CFI INIT 3f60 86 .cfa: $rsp 8 + .ra: .cfa -8 + ^
STACK CFI 3f61 $rbp: .cfa -16 + ^ .cfa: $rsp 16 +
STACK CFI 3f65 $rbx: .cfa -24 + ^ .cfa: $rsp 24 +
STACK CFI 3f69 .cfa: $rsp 32 +
STACK CFI 3fc1 .cfa: $rsp 24 +
STACK CFI 3fc5 .cfa: $rsp 16 +
STACK CFI 3fc6 .cfa: $rsp 8 +
STACK CFI 3fc7 .cfa: $rsp 32 +
STACK CFI INIT 3ff0 34 .cfa: $rsp 8 + .ra: .cfa -8 + ^
STACK CFI 3ffc $rbx: .cfa -16 + ^ .cfa: $rsp 16 +
STACK CFI 4023 .cfa: $rsp 8 +
STACK CFI INIT 1a30 29 .cfa: $rsp 8 + .ra: .cfa -8 + ^
STACK CFI 1a36 $rbx: .cfa -16 + ^ .cfa: $rsp 16 +
STACK CFI 1a58 .cfa: $rsp 8 +
STACK CFI INIT 4030 4d .cfa: $rsp 8 + .ra: .cfa -8 + ^
STACK CFI 4031 $rbp: .cfa -16 + ^ .cfa: $rsp 16 +
STACK CFI 4036 $rbx: .cfa -24 + ^ .cfa: $rsp 24 +
STACK CFI 403d .cfa: $rsp 32 +
STACK CFI 4050 .cfa: $rsp 24 +
STACK CFI 4054 .cfa: $rsp 16 +
STACK CFI 4055 .cfa: $rsp 8 +
STACK CFI 4060 .cfa: $rsp 32 +
STACK CFI INIT 1a5a 4a .cfa: $rsp 8 + .ra: .cfa -8 + ^
STACK CFI 1a5c $r13: .cfa -16 + ^ .cfa: $rsp 16 +
STACK CFI 1a64 $r12: .cfa -24 + ^ .cfa: $rsp 24 +
STACK CFI 1a6b $rbp: .cfa -32 + ^ .cfa: $rsp 32 +
STACK CFI 1a6c $rbx: .cfa -40 + ^ .cfa: $rsp 40 +
STACK CFI 1a6d .cfa: $rsp 48 +
STACK CFI 1a9d .cfa: $rsp 40 +
STACK CFI 1a9e .cfa: $rsp 32 +
STACK CFI 1a9f .cfa: $rsp 24 +
STACK CFI 1aa1 .cfa: $rsp 16 +
STACK CFI 1aa3 .cfa: $rsp 8 +
STACK CFI INIT 1aa4 20 .cfa: $rsp 8 + .ra: .cfa -8 + ^
STACK CFI 1aac .cfa: $rsp 16 +
STACK CFI INIT 1ac4 20 .cfa: $rsp 8 + .ra: .cfa -8 + ^
STACK CFI 1acc .cfa: $rsp 16 +
STACK CFI INIT 4080 1e .cfa: $rsp 8 + .ra: .cfa -8 + ^
STACK CFI 4099 .cfa: $rsp 16 +
STACK CFI INIT 1ae4 20 .cfa: $rsp 8 + .ra: .cfa -8 + ^
STACK CFI 1aec .cfa: $rsp 16 +
STACK CFI INIT 1b04 20 .cfa: $rsp 8 + .ra: .cfa -8 + ^
STACK CFI 1b0c .cfa: $rsp 16 +
STACK CFI INIT 8420 13f .cfa: $rsp 8 + .ra: .cfa -8 + ^
STACK CFI 8422 $r15: .cfa -16 + ^ .cfa: $rsp 16 +
STACK CFI 8424 $r14: .cfa -24 + ^ .cfa: $rsp 24 +
STACK CFI 8426 $r13: .cfa -32 + ^ .cfa: $rsp 32 +
STACK CFI 8428 $r12: .cfa -40 + ^ .cfa: $rsp 40 +
STACK CFI 8429 $rbp: .cfa -48 + ^ .cfa: $rsp 48 +
STACK CFI 842d $rbx: .cfa -56 + ^ .cfa: $rsp 56 +
STACK CFI 8431 .cfa: $rsp 64 +
STACK CFI 846f .cfa: $rsp 56 +
STACK CFI 8470 .cfa: $rsp 48 +
STACK CFI 8471 .cfa: $rsp 40 +
STACK CFI 8473 .cfa: $rsp 32 +
STACK CFI 8475 .cfa: $rsp 24 +
STACK CFI 8477 .cfa: $rsp 16 +
STACK CFI 8479 .cfa: $rsp 8 +
STACK CFI 8480 .cfa: $rsp 64 +
STACK CFI 84d1 .cfa: $rsp 56 +
STACK CFI 84d4 .cfa: $rsp 48 +
STACK CFI 84d5 .cfa: $rsp 40 +
STACK CFI 84d7 .cfa: $rsp 32 +
STACK CFI 84d9 .cfa: $rsp 24 +
STACK CFI 84db .cfa: $rsp 16 +
STACK CFI 84dd .cfa: $rsp 8 +
STACK CFI 84e0 .cfa: $rsp 64 +
STACK CFI 852d .cfa: $rsp 56 +
STACK CFI 8533 .cfa: $rsp 48 +
STACK CFI 8534 .cfa: $rsp 40 +
STACK CFI 8536 .cfa: $rsp 32 +
STACK CFI 8538 .cfa: $rsp 24 +
STACK CFI 853a .cfa: $rsp 16 +
STACK CFI 853c .cfa: $rsp 8 +
STACK CFI 8540 .cfa: $rsp 64 +
STACK CFI 8554 .cfa: $rsp 56 +
STACK CFI 8555 .cfa: $rsp 48 +
STACK CFI 8556 .cfa: $rsp 40 +
STACK CFI 8558 .cfa: $rsp 32 +
STACK CFI 855a .cfa: $rsp 24 +
STACK CFI 855c .cfa: $rsp 16 +
STACK CFI 855e .cfa: $rsp 8 +
STACK CFI INIT 1b24 1b7 .cfa: $rsp 8 + .ra: .cfa -8 + ^
STACK CFI 1b26 $r15: .cfa -16 + ^ .cfa: $rsp 16 +
STACK CFI 1b2f $r14: .cfa -24 + ^ .cfa: $rsp 24 +
STACK CFI 1b37 $r13: .cfa -32 + ^ .cfa: $rsp 32 +
STACK CFI 1b39 $r12: .cfa -40 + ^ .cfa: $rsp 40 +
STACK CFI 1b3a $rbp: .cfa -48 + ^ .cfa: $rsp 48 +
STACK CFI 1b3b $rbx: .cfa -56 + ^ .cfa: $rsp 56 +
STACK CFI 1b3f .cfa: $rsp 112 +
STACK CFI 1cce .cfa: $rsp 56 +
STACK CFI 1cd1 .cfa: $rsp 48 +
STACK CFI 1cd2 .cfa: $rsp 40 +
STACK CFI 1cd4 .cfa: $rsp 32 +
STACK CFI 1cd6 .cfa: $rsp 24 +
STACK CFI 1cd8 .cfa: $rsp 16 +
STACK CFI 1cda .cfa: $rsp 8 +
STACK CFI INIT 1cdc 68 .cfa: $rsp 8 + .ra: .cfa -8 + ^
STACK CFI 1cde $r12: .cfa -16 + ^ .cfa: $rsp 16 +
STACK CFI 1ce2 $rbp: .cfa -24 + ^ .cfa: $rsp 24 +
STACK CFI 1ce3 $rbx: .cfa -32 + ^ .cfa: $rsp 32 +
STACK CFI 1ced .cfa: $rsp 304 +
STACK CFI 1d3f .cfa: $rsp 32 +
STACK CFI 1d40 .cfa: $rsp 24 +
STACK CFI 1d41 .cfa: $rsp 16 +
STACK CFI 1d43 .cfa: $rsp 8 +
STACK CFI INIT 8560 249 .cfa: $rsp 8 + .ra: .cfa -8 + ^
STACK CFI 8562 $r15: .cfa -16 + ^ .cfa: $rsp 16 +
STACK CFI 8564 $r14: .cfa -24 + ^ .cfa: $rsp 24 +
STACK CFI 856a $r13: .cfa -32 + ^ .cfa: $rsp 32 +
STACK CFI 856c $r12: .cfa -40 + ^ .cfa: $rsp 40 +
STACK CFI 856d $rbp: .cfa -48 + ^ .cfa: $rsp 48 +
STACK CFI 8571 $rbx: .cfa -56 + ^ .cfa: $rsp 56 +
STACK CFI 8578 .cfa: $rsp 64 +
STACK CFI 85ff .cfa: $rsp 56 +
STACK CFI 8602 .cfa: $rsp 48 +
STACK CFI 8603 .cfa: $rsp 40 +
STACK CFI 8605 .cfa: $rsp 32 +
STACK CFI 8607 .cfa: $rsp 24 +
STACK CFI 8609 .cfa: $rsp 16 +
STACK CFI 860b .cfa: $rsp 8 +
STACK CFI 8610 .cfa: $rsp 64 +
STACK CFI 86d6 .cfa: $rsp 56 +
STACK CFI 86d7 .cfa: $rsp 48 +
STACK CFI 86d8 .cfa: $rsp 40 +
STACK CFI 86da .cfa: $rsp 32 +
STACK CFI 86dc .cfa: $rsp 24 +
STACK CFI 86de .cfa: $rsp 16 +
STACK CFI 86e5 .cfa: $rsp 8 +
STACK CFI 86f0 .cfa: $rsp 64 +
STACK CFI INIT 87b0 22 .cfa: $rsp 8 + .ra: .cfa -8 + ^
STACK CFI INIT 87e0 22 .cfa: $rsp 8 + .ra: .cfa -8 + ^
STACK CFI INIT 8810 22 .cfa: $rsp 8 + .ra: .cfa -8 + ^
STACK CFI INIT 8840 22 .cfa: $rsp 8 + .ra: .cfa -8 + ^
STACK CFI INIT 8870 22 .cfa: $rsp 8 + .ra: .cfa -8 + ^
STACK CFI INIT 88a0 307 .cfa: $rsp 8 + .ra: .cfa -8 + ^
STACK CFI 88a2 $r15: .cfa -16 + ^ .cfa: $rsp 16 +
STACK CFI 88a4 $r14: .cfa -24 + ^ .cfa: $rsp 24 +
STACK CFI 88a9 $r13: .cfa -32 + ^ .cfa: $rsp 32 +
STACK CFI 88ab $r12: .cfa -40 + ^ .cfa: $rsp 40 +
STACK CFI 88ac $rbp: .cfa -48 + ^ .cfa: $rsp 48 +
STACK CFI 88b0 $rbx: .cfa -56 + ^ .cfa: $rsp 56 +
STACK CFI 88b7 .cfa: $rsp 96 +
STACK CFI 8915 .cfa: $rsp 56 +
STACK CFI 8916 .cfa: $rsp 48 +
STACK CFI 8917 .cfa: $rsp 40 +
STACK CFI 8919 .cfa: $rsp 32 +
STACK CFI 891b .cfa: $rsp 24 +
STACK CFI 891d .cfa: $rsp 16 +
STACK CFI 891f .cfa: $rsp 8 +
STACK CFI 8920 .cfa: $rsp 96 +
STACK CFI INIT 40a0 15c9 .cfa: $rsp 8 + .ra: .cfa -8 + ^
STACK CFI 40a2 $r15: .cfa -16 + ^ .cfa: $rsp 16 +
STACK CFI 40a4 $r14: .cfa -24 + ^ .cfa: $rsp 24 +
STACK CFI 40a6 $r13: .cfa -32 + ^ .cfa: $rsp 32 +
STACK CFI 40a8 $r12: .cfa -40 + ^ .cfa: $rsp 40 +
STACK CFI 40a9 $rbp: .cfa -48 + ^ .cfa: $rsp 48 +
STACK CFI 40aa $rbx: .cfa -56 + ^ .cfa: $rsp 56 +
STACK CFI 40b4 .cfa: $rsp 2416 +
STACK CFI 434f .cfa: $rsp 56 +
STACK CFI 4350 .cfa: $rsp 48 +
STACK CFI 4351 .cfa: $rsp 40 +
STACK CFI 4353 .cfa: $rsp 32 +
STACK CFI 4355 .cfa: $rsp 24 +
STACK CFI 4357 .cfa: $rsp 16 +
STACK CFI 4359 .cfa: $rsp 8 +
STACK CFI 4360 .cfa: $rsp 2416 +
STACK CFI INIT 8bb0 3c4 .cfa: $rsp 8 + .ra: .cfa -8 + ^
STACK CFI 8bb2 $r15: .cfa -16 + ^ .cfa: $rsp 16 +
STACK CFI 8bb4 $r14: .cfa -24 + ^ .cfa: $rsp 24 +
STACK CFI 8bb6 $r13: .cfa -32 + ^ .cfa: $rsp 32 +
STACK CFI 8bb8 $r12: .cfa -40 + ^ .cfa: $rsp 40 +
STACK CFI 8bb9 $rbp: .cfa -48 + ^ .cfa: $rsp 48 +
STACK CFI 8bbd $rbx: .cfa -56 + ^ .cfa: $rsp 56 +
STACK CFI 8bc1 .cfa: $rsp 96 +
STACK CFI 8dd8 .cfa: $rsp 56 +
STACK CFI 8dd9 .cfa: $rsp 48 +
STACK CFI 8dda .cfa: $rsp 40 +
STACK CFI 8ddc .cfa: $rsp 32 +
STACK CFI 8dde .cfa: $rsp 24 +
STACK CFI 8de0 .cfa: $rsp 16 +
STACK CFI 8de2 .cfa: $rsp 8 +
STACK CFI 8de8 .cfa: $rsp 96 +
STACK CFI 8e59 .cfa: $rsp 56 +
STACK CFI 8e61 .cfa: $rsp 48 +
STACK CFI 8e62 .cfa: $rsp 40 +
STACK CFI 8e64 .cfa: $rsp 32 +
STACK CFI 8e66 .cfa: $rsp 24 +
STACK CFI 8e68 .cfa: $rsp 16 +
STACK CFI 8e6a .cfa: $rsp 8 +
STACK CFI 8e70 .cfa: $rsp 96 +
STACK CFI INIT 5670 1fb2 .cfa: $rsp 8 + .ra: .cfa -8 + ^
STACK CFI 5672 $r15: .cfa -16 + ^ .cfa: $rsp 16 +
STACK CFI 567d $r14: .cfa -24 + ^ .cfa: $rsp 24 +
STACK CFI 567f $r13: .cfa -32 + ^ .cfa: $rsp 32 +
STACK CFI 5684 $r12: .cfa -40 + ^ .cfa: $rsp 40 +
STACK CFI 5685 $rbp: .cfa -48 + ^ .cfa: $rsp 48 +
STACK CFI 5686 $rbx: .cfa -56 + ^ .cfa: $rsp 56 +
STACK CFI 568d .cfa: $rsp 3904 +
STACK CFI 57f9 .cfa: $rsp 56 +
STACK CFI 57fa .cfa: $rsp 48 +
STACK CFI 57fb .cfa: $rsp 40 +
STACK CFI 57fd .cfa: $rsp 32 +
STACK CFI 57ff .cfa: $rsp 24 +
STACK CFI 5801 .cfa: $rsp 16 +
STACK CFI 5803 .cfa: $rsp 8 +
STACK CFI 5808 .cfa: $rsp 3904 +
STACK CFI INIT 7630 3e0 .cfa: $rsp 8 + .ra: .cfa -8 + ^
STACK CFI 7632 $r15: .cfa -16 + ^ .cfa: $rsp 16 +
STACK CFI 7637 $r14: .cfa -24 + ^ .cfa: $rsp 24 +
STACK CFI 763e $r13: .cfa -32 + ^ .cfa: $rsp 32 +
STACK CFI 7643 $r12: .cfa -40 + ^ .cfa: $rsp 40 +
STACK CFI 7647 $rbp: .cfa -48 + ^ .cfa: $rsp 48 +
STACK CFI 7648 $rbx: .cfa -56 + ^ .cfa: $rsp 56 +
STACK CFI 764f .cfa: $rsp 384 +
STACK CFI 7699 .cfa: $rsp 56 +
STACK CFI 769c .cfa: $rsp 48 +
STACK CFI 769d .cfa: $rsp 40 +
STACK CFI 769f .cfa: $rsp 32 +
STACK CFI 76a1 .cfa: $rsp 24 +
STACK CFI 76a3 .cfa: $rsp 16 +
STACK CFI 76a5 .cfa: $rsp 8 +
STACK CFI 76b0 .cfa: $rsp 384 +
STACK CFI INIT 7a10 e1 .cfa: $rsp 8 + .ra: .cfa -8 + ^
STACK CFI 7a12 $r13: .cfa -16 + ^ .cfa: $rsp 16 +
STACK CFI 7a28 $r12: .cfa -24 + ^ .cfa: $rsp 24 +
STACK CFI 7a29 $rbp: .cfa -32 + ^ .cfa: $rsp 32 +
STACK CFI 7a2a $rbx: .cfa -40 + ^ .cfa: $rsp 40 +
STACK CFI 7a2e .cfa: $rsp 96 +
STACK CFI 7aa4 .cfa: $rsp 40 +
STACK CFI 7aa8 .cfa: $rsp 32 +
STACK CFI 7aa9 .cfa: $rsp 24 +
STACK CFI 7aab .cfa: $rsp 16 +
STACK CFI 7aad .cfa: $rsp 8 +
STACK CFI 7aae .cfa: $rsp 96 +
STACK CFI INIT 7b00 e1 .cfa: $rsp 8 + .ra: .cfa -8 + ^
STACK CFI 7b02 $r13: .cfa -16 + ^ .cfa: $rsp 16 +
STACK CFI 7b15 $r12: .cfa -24 + ^ .cfa: $rsp 24 +
STACK CFI 7b18 $rbp: .cfa -32 + ^ .cfa: $rsp 32 +
STACK CFI 7b19 $rbx: .cfa -40 + ^ .cfa: $rsp 40 +
STACK CFI 7b1d .cfa: $rsp 96 +
STACK CFI 7b94 .cfa: $rsp 40 +
STACK CFI 7b98 .cfa: $rsp 32 +
STACK CFI 7b99 .cfa: $rsp 24 +
STACK CFI 7b9b .cfa: $rsp 16 +
STACK CFI 7b9d .cfa: $rsp 8 +
STACK CFI 7b9e .cfa: $rsp 96 +
STACK CFI INIT 7bf0 2b .cfa: $rsp 8 + .ra: .cfa -8 + ^
STACK CFI 7bf4 .cfa: $rsp 32 +
STACK CFI 7c1a .cfa: $rsp 8 +
STACK CFI INIT 7c20 2a .cfa: $rsp 8 + .ra: .cfa -8 + ^
STACK CFI 7c24 .cfa: $rsp 32 +
STACK CFI 7c49 .cfa: $rsp 8 +
STACK CFI INIT 7c50 2c .cfa: $rsp 8 + .ra: .cfa -8 + ^
STACK CFI 7c54 .cfa: $rsp 32 +
STACK CFI 7c7b .cfa: $rsp 8 +
STACK CFI INIT 7c80 2b .cfa: $rsp 8 + .ra: .cfa -8 + ^
STACK CFI 7c84 .cfa: $rsp 32 +
STACK CFI 7caa .cfa: $rsp 8 +
STACK CFI INIT 7cb0 452 .cfa: $rsp 8 + .ra: .cfa -8 + ^
STACK CFI 7cb2 $r15: .cfa -16 + ^ .cfa: $rsp 16 +
STACK CFI 7cb4 $r14: .cfa -24 + ^ .cfa: $rsp 24 +
STACK CFI 7cb9 $r13: .cfa -32 + ^ .cfa: $rsp 32 +
STACK CFI 7cbb $r12: .cfa -40 + ^ .cfa: $rsp 40 +
STACK CFI 7cbc $rbp: .cfa -48 + ^ .cfa: $rsp 48 +
STACK CFI 7cbd $rbx: .cfa -56 + ^ .cfa: $rsp 56 +
STACK CFI 7cc6 .cfa: $rsp 432 +
STACK CFI 7ed5 .cfa: $rsp 56 +
STACK CFI 7ed8 .cfa: $rsp 48 +
STACK CFI 7ed9 .cfa: $rsp 40 +
STACK CFI 7edb .cfa: $rsp 32 +
STACK CFI 7edd .cfa: $rsp 24 +
STACK CFI 7edf .cfa: $rsp 16 +
STACK CFI 7ee1 .cfa: $rsp 8 +
STACK CFI 7ee8 .cfa: $rsp 432 +
STACK CFI INIT 8110 302 .cfa: $rsp 8 + .ra: .cfa -8 + ^
STACK CFI 8112 $r15: .cfa -16 + ^ .cfa: $rsp 16 +
STACK CFI 8117 $r14: .cfa -24 + ^ .cfa: $rsp 24 +
STACK CFI 8119 $r13: .cfa -32 + ^ .cfa: $rsp 32 +
STACK CFI 811b $r12: .cfa -40 + ^ .cfa: $rsp 40 +
STACK CFI 811f $rbp: .cfa -48 + ^ .cfa: $rsp 48 +
STACK CFI 8120 $rbx: .cfa -56 + ^ .cfa: $rsp 56 +
STACK CFI 8127 .cfa: $rsp 208 +
STACK CFI 8276 .cfa: $rsp 56 +
STACK CFI 8279 .cfa: $rsp 48 +
STACK CFI 827a .cfa: $rsp 40 +
STACK CFI 827c .cfa: $rsp 32 +
STACK CFI 827e .cfa: $rsp 24 +
STACK CFI 8280 .cfa: $rsp 16 +
STACK CFI 8282 .cfa: $rsp 8 +
STACK CFI 8288 .cfa: $rsp 208 +
STACK CFI INIT 1d44 20 .cfa: $rsp 8 + .ra: .cfa -8 + ^
STACK CFI 1d4c .cfa: $rsp 16 +
STACK CFI INIT 1d64 20 .cfa: $rsp 8 + .ra: .cfa -8 + ^
STACK CFI 1d6c .cfa: $rsp 16 +
STACK CFI INIT 8f80 1a .cfa: $rsp 8 + .ra: .cfa -8 + ^
STACK CFI INIT 8fa0 78 .cfa: $rsp 8 + .ra: .cfa -8 + ^
STACK CFI 8fa2 $r12: .cfa -16 + ^ .cfa: $rsp 16 +
STACK CFI 8fa6 $rbp: .cfa -24 + ^ .cfa: $rsp 24 +
STACK CFI 8fa7 $rbx: .cfa -32 + ^ .cfa: $rsp 32 +
STACK CFI 8fdf .cfa: $rsp 24 +
STACK CFI 8fe0 .cfa: $rsp 16 +
STACK CFI 8fe2 .cfa: $rsp 8 +
STACK CFI 8fe8 .cfa: $rsp 32 +
STACK CFI 8ff5 .cfa: $rsp 24 +
STACK CFI 8ff6 .cfa: $rsp 16 +
STACK CFI 8ff8 .cfa: $rsp 8 +
STACK CFI 8ff9 .cfa: $rsp 32 +
STACK CFI INIT 9020 2c .cfa: $rsp 8 + .ra: .cfa -8 + ^
STACK CFI 9034 .cfa: $rsp 16 +
STACK CFI INIT 9050 69 .cfa: $rsp 8 + .ra: .cfa -8 + ^
STACK CFI 9051 $rbp: .cfa -16 + ^ .cfa: $rsp 16 +
STACK CFI 9057 $rbx: .cfa -24 + ^ .cfa: $rsp 24 +
STACK CFI 905e .cfa: $rsp 32 +
STACK CFI 9098 .cfa: $rsp 24 +
STACK CFI 9099 .cfa: $rsp 16 +
STACK CFI 909a .cfa: $rsp 8 +
STACK CFI 90a0 .cfa: $rsp 32 +
STACK CFI 90b4 .cfa: $rsp 24 +
STACK CFI 90b7 .cfa: $rsp 16 +
STACK CFI 90b8 .cfa: $rsp 8 +
STACK CFI INIT 90c0 15 .cfa: $rsp 8 + .ra: .cfa -8 + ^
STACK CFI INIT 90e0 b6 .cfa: $rsp 8 + .ra: .cfa -8 + ^
STACK CFI 90e2 $r13: .cfa -16 + ^ .cfa: $rsp 16 +
STACK CFI 90e4 $r12: .cfa -24 + ^ .cfa: $rsp 24 +
STACK CFI 90e5 $rbp: .cfa -32 + ^ .cfa: $rsp 32 +
STACK CFI 90e6 $rbx: .cfa -40 + ^ .cfa: $rsp 40 +
STACK CFI 90ea .cfa: $rsp 48 +
STACK CFI 911d .cfa: $rsp 40 +
STACK CFI 911e .cfa: $rsp 32 +
STACK CFI 911f .cfa: $rsp 24 +
STACK CFI 9121 .cfa: $rsp 16 +
STACK CFI 9123 .cfa: $rsp 8 +
STACK CFI 9128 .cfa: $rsp 48 +
STACK CFI INIT 91a0 ff .cfa: $rsp 8 + .ra: .cfa -8 + ^
STACK CFI 91a1 $rbp: .cfa -16 + ^ .cfa: $rsp 16 +
STACK CFI 91a5 $rbx: .cfa -24 + ^ .cfa: $rsp 24 +
STACK CFI 91a9 .cfa: $rsp 32 +
STACK CFI 922b .cfa: $rsp 24 +
STACK CFI 922c .cfa: $rsp 16 +
STACK CFI 922d .cfa: $rsp 8 +
STACK CFI 9230 .cfa: $rsp 32 +
STACK CFI 923d .cfa: $rsp 24 +
STACK CFI 9240 .cfa: $rsp 16 +
STACK CFI 9241 .cfa: $rsp 8 +
STACK CFI 9242 .cfa: $rsp 32 +
STACK CFI INIT 92a0 b4 .cfa: $rsp 8 + .ra: .cfa -8 + ^
STACK CFI 92a2 $r15: .cfa -16 + ^ .cfa: $rsp 16 +
STACK CFI 92a4 $r14: .cfa -24 + ^ .cfa: $rsp 24 +
STACK CFI 92a6 $r13: .cfa -32 + ^ .cfa: $rsp 32 +
STACK CFI 92a8 $r12: .cfa -40 + ^ .cfa: $rsp 40 +
STACK CFI 92a9 $rbp: .cfa -48 + ^ .cfa: $rsp 48 +
STACK CFI 92aa $rbx: .cfa -56 + ^ .cfa: $rsp 56 +
STACK CFI 92b0 .cfa: $rsp 80 +
STACK CFI 933d .cfa: $rsp 56 +
STACK CFI 933e .cfa: $rsp 48 +
STACK CFI 933f .cfa: $rsp 40 +
STACK CFI 9341 .cfa: $rsp 32 +
STACK CFI 9343 .cfa: $rsp 24 +
STACK CFI 9345 .cfa: $rsp 16 +
STACK CFI 9347 .cfa: $rsp 8 +
STACK CFI 9348 .cfa: $rsp 80 +
STACK CFI INIT 9360 b5 .cfa: $rsp 8 + .ra: .cfa -8 + ^
STACK CFI 9362 $r15: .cfa -16 + ^ .cfa: $rsp 16 +
STACK CFI 9364 $r14: .cfa -24 + ^ .cfa: $rsp 24 +
STACK CFI 9366 $r13: .cfa -32 + ^ .cfa: $rsp 32 +
STACK CFI 9368 $r12: .cfa -40 + ^ .cfa: $rsp 40 +
STACK CFI 9369 $rbp: .cfa -48 + ^ .cfa: $rsp 48 +
STACK CFI 936a $rbx: .cfa -56 + ^ .cfa: $rsp 56 +
STACK CFI 9370 .cfa: $rsp 80 +
STACK CFI 93fe .cfa: $rsp 56 +
STACK CFI 93ff .cfa: $rsp 48 +
STACK CFI 9400 .cfa: $rsp 40 +
STACK CFI 9402 .cfa: $rsp 32 +
STACK CFI 9404 .cfa: $rsp 24 +
STACK CFI 9406 .cfa: $rsp 16 +
STACK CFI 9408 .cfa: $rsp 8 +
STACK CFI 9409 .cfa: $rsp 80 +
STACK CFI INIT 9420 41 .cfa: $rsp 8 + .ra: .cfa -8 + ^
STACK CFI 9421 $rbx: .cfa -16 + ^ .cfa: $rsp 16 +
STACK CFI 9441 .cfa: $rsp 8 +
STACK CFI 9442 .cfa: $rsp 16 +
STACK CFI INIT 9470 88 .cfa: $rsp 8 + .ra: .cfa -8 + ^
STACK CFI 9474 .cfa: $rsp 16 +
STACK CFI 9497 .cfa: $rsp 8 +
STACK CFI 949c .cfa: $rsp 16 +
STACK CFI INIT 9500 c1 .cfa: $rsp 8 + .ra: .cfa -8 + ^
STACK CFI 9502 $r12: .cfa -16 + ^ .cfa: $rsp 16 +
STACK CFI 9503 $rbp: .cfa -24 + ^ .cfa: $rsp 24 +
STACK CFI 9507 $rbx: .cfa -32 + ^ .cfa: $rsp 32 +
STACK CFI 950b .cfa: $rsp 64 +
STACK CFI 9543 .cfa: $rsp 32 +
STACK CFI 9546 .cfa: $rsp 24 +
STACK CFI 9547 .cfa: $rsp 16 +
STACK CFI 9549 .cfa: $rsp 8 +
STACK CFI 9550 .cfa: $rsp 64 +
STACK CFI 957e .cfa: $rsp 32 +
STACK CFI 957f .cfa: $rsp 24 +
STACK CFI 9580 .cfa: $rsp 16 +
STACK CFI 9582 .cfa: $rsp 8 +
STACK CFI 9583 .cfa: $rsp 64 +
STACK CFI INIT 95f0 22 .cfa: $rsp 8 + .ra: .cfa -8 + ^
STACK CFI INIT 9620 1d9 .cfa: $rsp 8 + .ra: .cfa -8 + ^
STACK CFI 9622 $r15: .cfa -16 + ^ .cfa: $rsp 16 +
STACK CFI 9624 $r14: .cfa -24 + ^ .cfa: $rsp 24 +
STACK CFI 9626 $r13: .cfa -32 + ^ .cfa: $rsp 32 +
STACK CFI 9628 $r12: .cfa -40 + ^ .cfa: $rsp 40 +
STACK CFI 9629 $rbp: .cfa -48 + ^ .cfa: $rsp 48 +
STACK CFI 962d $rbx: .cfa -56 + ^ .cfa: $rsp 56 +
STACK CFI 9631 .cfa: $rsp 128 +
STACK CFI 9718 .cfa: $rsp 56 +
STACK CFI 971b .cfa: $rsp 48 +
STACK CFI 971c .cfa: $rsp 40 +
STACK CFI 971e .cfa: $rsp 32 +
STACK CFI 9720 .cfa: $rsp 24 +
STACK CFI 9722 .cfa: $rsp 16 +
STACK CFI 9724 .cfa: $rsp 8 +
STACK CFI 9728 .cfa: $rsp 128 +
STACK CFI INIT 95d0 5 .cfa: $rsp 8 + .ra: .cfa -8 + ^
STACK CFI INIT 9800 1d7 .cfa: $rsp 8 + .ra: .cfa -8 + ^
STACK CFI 9802 $r15: .cfa -16 + ^ .cfa: $rsp 16 +
STACK CFI 9804 $r14: .cfa -24 + ^ .cfa: $rsp 24 +
STACK CFI 9806 $r13: .cfa -32 + ^ .cfa: $rsp 32 +
STACK CFI 9808 $r12: .cfa -40 + ^ .cfa: $rsp 40 +
STACK CFI 9809 $rbp: .cfa -48 + ^ .cfa: $rsp 48 +
STACK CFI 980d $rbx: .cfa -56 + ^ .cfa: $rsp 56 +
STACK CFI 9811 .cfa: $rsp 128 +
STACK CFI 98f7 .cfa: $rsp 56 +
STACK CFI 98fa .cfa: $rsp 48 +
STACK CFI 98fb .cfa: $rsp 40 +
STACK CFI 98fd .cfa: $rsp 32 +
STACK CFI 98ff .cfa: $rsp 24 +
STACK CFI 9901 .cfa: $rsp 16 +
STACK CFI 9903 .cfa: $rsp 8 +
STACK CFI 9908 .cfa: $rsp 128 +
STACK CFI INIT 95e0 5 .cfa: $rsp 8 + .ra: .cfa -8 + ^
STACK CFI INIT 99e0 91 .cfa: $rsp 8 + .ra: .cfa -8 + ^
STACK CFI 99e2 $r15: .cfa -16 + ^ .cfa: $rsp 16 +
STACK CFI 99eb $r14: .cfa -24 + ^ .cfa: $rsp 24 +
STACK CFI 99f4 $r13: .cfa -32 + ^ .cfa: $rsp 32 +
STACK CFI 99f6 $r12: .cfa -40 + ^ .cfa: $rsp 40 +
STACK CFI 99f7 $rbp: .cfa -48 + ^ .cfa: $rsp 48 +
STACK CFI 99fb $rbx: .cfa -56 + ^ .cfa: $rsp 56 +
STACK CFI 9a03 .cfa: $rsp 80 +
STACK CFI 9a4c .cfa: $rsp 56 +
STACK CFI 9a4d .cfa: $rsp 48 +
STACK CFI 9a50 .cfa: $rsp 40 +
STACK CFI 9a52 .cfa: $rsp 32 +
STACK CFI 9a54 .cfa: $rsp 24 +
STACK CFI 9a56 .cfa: $rsp 16 +
STACK CFI 9a58 .cfa: $rsp 8 +
STACK CFI 9a60 .cfa: $rsp 80 +
STACK CFI 9a64 .cfa: $rsp 56 +
STACK CFI 9a67 .cfa: $rsp 48 +
STACK CFI 9a68 .cfa: $rsp 40 +
STACK CFI 9a6a .cfa: $rsp 32 +
STACK CFI 9a6c .cfa: $rsp 24 +
STACK CFI 9a6e .cfa: $rsp 16 +
STACK CFI 9a70 .cfa: $rsp 8 +
STACK CFI INIT 9a80 56 .cfa: $rsp 8 + .ra: .cfa -8 + ^
STACK CFI 9a81 $rbx: .cfa -16 + ^ .cfa: $rsp 16 +
STACK CFI 9a8d .cfa: $rsp 48 +
STACK CFI 9ad4 .cfa: $rsp 16 +
STACK CFI 9ad5 .cfa: $rsp 8 +
STACK CFI INIT 9ae0 15b .cfa: $rsp 8 + .ra: .cfa -8 + ^
STACK CFI 9ae2 $r14: .cfa -16 + ^ .cfa: $rsp 16 +
STACK CFI 9ae4 $r13: .cfa -24 + ^ .cfa: $rsp 24 +
STACK CFI 9ae6 $r12: .cfa -32 + ^ .cfa: $rsp 32 +
STACK CFI 9aea $rbp: .cfa -40 + ^ .cfa: $rsp 40 +
STACK CFI 9aee $rbx: .cfa -48 + ^ .cfa: $rsp 48 +
STACK CFI 9af2 .cfa: $rsp 80 +
STACK CFI 9bd9 .cfa: $rsp 48 +
STACK CFI 9bdd .cfa: $rsp 40 +
STACK CFI 9bde .cfa: $rsp 32 +
STACK CFI 9be0 .cfa: $rsp 24 +
STACK CFI 9be2 .cfa: $rsp 16 +
STACK CFI 9be4 .cfa: $rsp 8 +
STACK CFI 9be8 .cfa: $rsp 80 +
STACK CFI INIT 9e20 283 .cfa: $rsp 8 + .ra: .cfa -8 + ^
STACK CFI 9e22 $r15: .cfa -16 + ^ .cfa: $rsp 16 +
STACK CFI 9e24 $r14: .cfa -24 + ^ .cfa: $rsp 24 +
STACK CFI 9e26 $r13: .cfa -32 + ^ .cfa: $rsp 32 +
STACK CFI 9e28 $r12: .cfa -40 + ^ .cfa: $rsp 40 +
STACK CFI 9e2c $rbp: .cfa -48 + ^ .cfa: $rsp 48 +
STACK CFI 9e2d $rbx: .cfa -56 + ^ .cfa: $rsp 56 +
STACK CFI 9e31 .cfa: $rsp 80 +
STACK CFI 9ec8 .cfa: $rsp 56 +
STACK CFI 9ec9 .cfa: $rsp 48 +
STACK CFI 9eca .cfa: $rsp 40 +
STACK CFI 9ecc .cfa: $rsp 32 +
STACK CFI 9ece .cfa: $rsp 24 +
STACK CFI 9ed0 .cfa: $rsp 16 +
STACK CFI 9ed2 .cfa: $rsp 8 +
STACK CFI 9ed8 .cfa: $rsp 80 +
STACK CFI 9fc1 .cfa: $rsp 56 +
STACK CFI 9fc2 .cfa: $rsp 48 +
STACK CFI 9fc3 .cfa: $rsp 40 +
STACK CFI 9fc5 .cfa: $rsp 32 +
STACK CFI 9fc7 .cfa: $rsp 24 +
STACK CFI 9fc9 .cfa: $rsp 16 +
STACK CFI 9fcb .cfa: $rsp 8 +
STACK CFI 9fd0 .cfa: $rsp 80 +
STACK CFI a060 .cfa: $rsp 56 +
STACK CFI a061 .cfa: $rsp 48 +
STACK CFI a062 .cfa: $rsp 40 +
STACK CFI a064 .cfa: $rsp 32 +
STACK CFI a066 .cfa: $rsp 24 +
STACK CFI a068 .cfa: $rsp 16 +
STACK CFI a06a .cfa: $rsp 8 +
STACK CFI a070 .cfa: $rsp 80 +
STACK CFI INIT 9c40 e3 .cfa: $rsp 8 + .ra: .cfa -8 + ^
STACK CFI 9c42 $r12: .cfa -16 + ^ .cfa: $rsp 16 +
STACK CFI 9c43 $rbp: .cfa -24 + ^ .cfa: $rsp 24 +
STACK CFI 9c47 $rbx: .cfa -32 + ^ .cfa: $rsp 32 +
STACK CFI 9c4e .cfa: $rsp 64 +
STACK CFI 9cea .cfa: $rsp 32 +
STACK CFI 9ceb .cfa: $rsp 24 +
STACK CFI 9cec .cfa: $rsp 16 +
STACK CFI 9cee .cfa: $rsp 8 +
STACK CFI 9cf0 .cfa: $rsp 64 +
STACK CFI 9d04 .cfa: $rsp 32 +
STACK CFI 9d05 .cfa: $rsp 24 +
STACK CFI 9d06 .cfa: $rsp 16 +
STACK CFI 9d08 .cfa: $rsp 8 +
STACK CFI 9d10 .cfa: $rsp 64 +
STACK CFI INIT 9d30 e3 .cfa: $rsp 8 + .ra: .cfa -8 + ^
STACK CFI 9d32 $r12: .cfa -16 + ^ .cfa: $rsp 16 +
STACK CFI 9d33 $rbp: .cfa -24 + ^ .cfa: $rsp 24 +
STACK CFI 9d37 $rbx: .cfa -32 + ^ .cfa: $rsp 32 +
STACK CFI 9d3e .cfa: $rsp 64 +
STACK CFI 9dd8 .cfa: $rsp 32 +
STACK CFI 9dd9 .cfa: $rsp 24 +
STACK CFI 9dda .cfa: $rsp 16 +
STACK CFI 9ddc .cfa: $rsp 8 +
STACK CFI 9de0 .cfa: $rsp 64 +
STACK CFI 9df4 .cfa: $rsp 32 +
STACK CFI 9df5 .cfa: $rsp 24 +
STACK CFI 9df6 .cfa: $rsp 16 +
STACK CFI 9df8 .cfa: $rsp 8 +
STACK CFI 9e00 .cfa: $rsp 64 +
STACK CFI INIT a1f0 16 .cfa: $rsp 8 + .ra: .cfa -8 + ^
STACK CFI a1f4 .cfa: $rsp 16 +
STACK CFI a1ff .cfa: $rsp 8 +
STACK CFI INIT a0b0 73 .cfa: $rsp 8 + .ra: .cfa -8 + ^
STACK CFI a0b1 $rbx: .cfa -16 + ^ .cfa: $rsp 16 +
STACK CFI a122 .cfa: $rsp 8 +
STACK CFI INIT a130 c0 .cfa: $rsp 8 + .ra: .cfa -8 + ^
STACK CFI a131 $rbx: .cfa -16 + ^ .cfa: $rsp 16 +
STACK CFI a135 .cfa: $rsp 48 +
STACK CFI a1cd .cfa: $rsp 16 +
STACK CFI a1d0 .cfa: $rsp 8 +
STACK CFI a1d1 .cfa: $rsp 48 +
STACK CFI INIT a210 1e .cfa: $rsp 8 + .ra: .cfa -8 + ^
STACK CFI INIT a230 33 .cfa: $rsp 8 + .ra: .cfa -8 + ^
STACK CFI INIT a270 56 .cfa: $rsp 8 + .ra: .cfa -8 + ^
STACK CFI INIT a2d0 4c .cfa: $rsp 8 + .ra: .cfa -8 + ^
STACK CFI INIT a320 36 .cfa: $rsp 8 + .ra: .cfa -8 + ^
STACK CFI INIT a360 3a .cfa: $rsp 8 + .ra: .cfa -8 + ^
STACK CFI INIT a3a0 2b .cfa: $rsp 8 + .ra: .cfa -8 + ^
STACK CFI INIT a3d0 26 .cfa: $rsp 8 + .ra: .cfa -8 + ^
STACK CFI INIT a400 2b .cfa: $rsp 8 + .ra: .cfa -8 + ^
STACK CFI INIT a430 64 .cfa: $rsp 8 + .ra: .cfa -8 + ^
STACK CFI INIT a4a0 3a .cfa: $rsp 8 + .ra: .cfa -8 + ^
STACK CFI INIT a4e0 1f .cfa: $rsp 8 + .ra: .cfa -8 + ^
STACK CFI INIT a500 38 .cfa: $rsp 8 + .ra: .cfa -8 + ^
STACK CFI INIT a540 45 .cfa: $rsp 8 + .ra: .cfa -8 + ^
STACK CFI a546 $rbx: .cfa -16 + ^ .cfa: $rsp 16 +
STACK CFI a563 $rbx: $rbx .cfa: $rsp 8 +
STACK CFI a568 $rbx: .cfa -16 + ^ .cfa: $rsp 16 +
STACK CFI a57c $rbx: $rbx .cfa: $rsp 8 +
STACK CFI a580 $rbx: .cfa -16 + ^ .cfa: $rsp 16 +
STACK CFI a584 $rbx: $rbx .cfa: $rsp 8 +
STACK CFI INIT a590 6c .cfa: $rsp 8 + .ra: .cfa -8 + ^
STACK CFI a594 .cfa: $rsp 32 +
STACK CFI a5ee .cfa: $rsp 8 +
STACK CFI a5f0 .cfa: $rsp 32 +
STACK CFI INIT a880 f .cfa: $rsp 8 + .ra: .cfa -8 + ^
STACK CFI INIT a600 f .cfa: $rsp 8 + .ra: .cfa -8 + ^
STACK CFI INIT a890 13 .cfa: $rsp 8 + .ra: .cfa -8 + ^
STACK CFI INIT a610 13 .cfa: $rsp 8 + .ra: .cfa -8 + ^
STACK CFI INIT a630 212 .cfa: $rsp 8 + .ra: .cfa -8 + ^
STACK CFI a632 $r15: .cfa -16 + ^ .cfa: $rsp 16 +
STACK CFI a639 $r14: .cfa -24 + ^ .cfa: $rsp 24 +
STACK CFI a63b $r13: .cfa -32 + ^ .cfa: $rsp 32 +
STACK CFI a640 $r12: .cfa -40 + ^ .cfa: $rsp 40 +
STACK CFI a646 $rbp: .cfa -48 + ^ .cfa: $rsp 48 +
STACK CFI a652 $rbx: .cfa -56 + ^ .cfa: $rsp 56 +
STACK CFI a659 .cfa: $rsp 208 +
STACK CFI a7eb .cfa: $rsp 56 +
STACK CFI a7ec .cfa: $rsp 48 +
STACK CFI a7ed .cfa: $rsp 40 +
STACK CFI a7ef .cfa: $rsp 32 +
STACK CFI a7f1 .cfa: $rsp 24 +
STACK CFI a7f3 .cfa: $rsp 16 +
STACK CFI a7f5 .cfa: $rsp 8 +
STACK CFI a800 .cfa: $rsp 208 +
STACK CFI INIT a850 24 .cfa: $rsp 8 + .ra: .cfa -8 + ^
STACK CFI a853 $rbx: .cfa -16 + ^ .cfa: $rsp 16 +
STACK CFI a86f .cfa: $rsp 8 +
STACK CFI a870 .cfa: $rsp 16 +
STACK CFI a873 .cfa: $rsp 8 +
STACK CFI INIT 1d84 20 .cfa: $rsp 8 + .ra: .cfa -8 + ^
STACK CFI 1d8c .cfa: $rsp 16 +
STACK CFI INIT a8b0 69 .cfa: $rsp 8 + .ra: .cfa -8 + ^
STACK CFI a8b2 $r13: .cfa -16 + ^ .cfa: $rsp 16 +
STACK CFI a8ba $r12: .cfa -24 + ^ .cfa: $rsp 24 +
STACK CFI a8be $rbp: .cfa -32 + ^ .cfa: $rsp 32 +
STACK CFI a8bf $rbx: .cfa -40 + ^ .cfa: $rsp 40 +
STACK CFI a8c3 .cfa: $rsp 48 +
STACK CFI a912 .cfa: $rsp 40 +
STACK CFI a913 .cfa: $rsp 32 +
STACK CFI a914 .cfa: $rsp 24 +
STACK CFI a916 .cfa: $rsp 16 +
STACK CFI a918 .cfa: $rsp 8 +
STACK CFI INIT a920 12 .cfa: $rsp 8 + .ra: .cfa -8 + ^
STACK CFI a921 $rbx: .cfa -16 + ^ .cfa: $rsp 16 +
STACK CFI a92d .cfa: $rsp 8 +
STACK CFI INIT a940 1ec .cfa: $rsp 8 + .ra: .cfa -8 + ^
STACK CFI a942 $r15: .cfa -16 + ^ .cfa: $rsp 16 +
STACK CFI a944 $r14: .cfa -24 + ^ .cfa: $rsp 24 +
STACK CFI a950 $r13: .cfa -32 + ^ .cfa: $rsp 32 +
STACK CFI a95a $r12: .cfa -40 + ^ .cfa: $rsp 40 +
STACK CFI a95e $rbp: .cfa -48 + ^ .cfa: $rsp 48 +
STACK CFI a962 $rbx: .cfa -56 + ^ .cfa: $rsp 56 +
STACK CFI a96d .cfa: $rsp 400 +
STACK CFI a9ad .cfa: $rsp 56 +
STACK CFI a9ae .cfa: $rsp 48 +
STACK CFI a9af .cfa: $rsp 40 +
STACK CFI a9b1 .cfa: $rsp 32 +
STACK CFI a9b3 .cfa: $rsp 24 +
STACK CFI a9b5 .cfa: $rsp 16 +
STACK CFI a9b7 .cfa: $rsp 8 +
STACK CFI a9c0 .cfa: $rsp 400 +
STACK CFI INIT ab30 131 .cfa: $rsp 8 + .ra: .cfa -8 + ^
STACK CFI ab32 $r13: .cfa -16 + ^ .cfa: $rsp 16 +
STACK CFI ab3e $r12: .cfa -24 + ^ .cfa: $rsp 24 +
STACK CFI ab3f $rbp: .cfa -32 + ^ .cfa: $rsp 32 +
STACK CFI ab40 $rbx: .cfa -40 + ^ .cfa: $rsp 40 +
STACK CFI ab47 .cfa: $rsp 336 +
STACK CFI ac1a .cfa: $rsp 40 +
STACK CFI ac1b .cfa: $rsp 32 +
STACK CFI ac1c .cfa: $rsp 24 +
STACK CFI ac1e .cfa: $rsp 16 +
STACK CFI ac20 .cfa: $rsp 8 +
STACK CFI ac28 .cfa: $rsp 336 +
STACK CFI INIT ac70 32 .cfa: $rsp 8 + .ra: .cfa -8 + ^
STACK CFI ac71 $rbx: .cfa -16 + ^ .cfa: $rsp 16 +
STACK CFI ac80 .cfa: $rsp 8 +
STACK CFI ac88 .cfa: $rsp 16 +
STACK CFI ac9c .cfa: $rsp 8 +
STACK CFI INIT acb0 4b .cfa: $rsp 8 + .ra: .cfa -8 + ^
STACK CFI INIT ad00 73 .cfa: $rsp 8 + .ra: .cfa -8 + ^
STACK CFI ad02 $r14: .cfa -16 + ^ .cfa: $rsp 16 +
STACK CFI ad07 $r13: .cfa -24 + ^ .cfa: $rsp 24 +
STACK CFI ad0c $r12: .cfa -32 + ^ .cfa: $rsp 32 +
STACK CFI ad10 $rbp: .cfa -40 + ^ .cfa: $rsp 40 +
STACK CFI ad14 $rbx: .cfa -48 + ^ .cfa: $rsp 48 +
STACK CFI ad5c .cfa: $rsp 40 +
STACK CFI ad5d .cfa: $rsp 32 +
STACK CFI ad5f .cfa: $rsp 24 +
STACK CFI ad61 .cfa: $rsp 16 +
STACK CFI ad63 .cfa: $rsp 8 +
STACK CFI ad68 .cfa: $rsp 48 +
STACK CFI ad69 .cfa: $rsp 40 +
STACK CFI ad6a .cfa: $rsp 32 +
STACK CFI ad6c .cfa: $rsp 24 +
STACK CFI ad6e .cfa: $rsp 16 +
STACK CFI ad72 .cfa: $rsp 8 +
STACK CFI INIT ad80 214 .cfa: $rsp 8 + .ra: .cfa -8 + ^
STACK CFI ad82 $r14: .cfa -16 + ^ .cfa: $rsp 16 +
STACK CFI ad84 $r13: .cfa -24 + ^ .cfa: $rsp 24 +
STACK CFI ad86 $r12: .cfa -32 + ^ .cfa: $rsp 32 +
STACK CFI ad87 $rbp: .cfa -40 + ^ .cfa: $rsp 40 +
STACK CFI ad8e $rbx: .cfa -48 + ^ .cfa: $rsp 48 +
STACK CFI ad98 .cfa: $rsp 864 +
STACK CFI add8 .cfa: $rsp 48 +
STACK CFI add9 .cfa: $rsp 40 +
STACK CFI adda .cfa: $rsp 32 +
STACK CFI addc .cfa: $rsp 24 +
STACK CFI adde .cfa: $rsp 16 +
STACK CFI ade0 .cfa: $rsp 8 +
STACK CFI ade8 .cfa: $rsp 864 +
STACK CFI INIT afa0 35a .cfa: $rsp 8 + .ra: .cfa -8 + ^
STACK CFI afa2 $r15: .cfa -16 + ^ .cfa: $rsp 16 +
STACK CFI afa4 $r14: .cfa -24 + ^ .cfa: $rsp 24 +
STACK CFI afa9 $r13: .cfa -32 + ^ .cfa: $rsp 32 +
STACK CFI afae $r12: .cfa -40 + ^ .cfa: $rsp 40 +
STACK CFI afaf $rbp: .cfa -48 + ^ .cfa: $rsp 48 +
STACK CFI afb3 $rbx: .cfa -56 + ^ .cfa: $rsp 56 +
STACK CFI afbd .cfa: $rsp 384 +
STACK CFI b03d .cfa: $rsp 56 +
STACK CFI b03e .cfa: $rsp 48 +
STACK CFI b03f .cfa: $rsp 40 +
STACK CFI b041 .cfa: $rsp 32 +
STACK CFI b043 .cfa: $rsp 24 +
STACK CFI b045 .cfa: $rsp 16 +
STACK CFI b047 .cfa: $rsp 8 +
STACK CFI b050 .cfa: $rsp 384 +
STACK CFI INIT c010 2eb .cfa: $rsp 8 + .ra: .cfa -8 + ^
STACK CFI c012 $r15: .cfa -16 + ^ .cfa: $rsp 16 +
STACK CFI c014 $r14: .cfa -24 + ^ .cfa: $rsp 24 +
STACK CFI c019 $r13: .cfa -32 + ^ .cfa: $rsp 32 +
STACK CFI c01b $r12: .cfa -40 + ^ .cfa: $rsp 40 +
STACK CFI c01c $rbp: .cfa -48 + ^ .cfa: $rsp 48 +
STACK CFI c020 $rbx: .cfa -56 + ^ .cfa: $rsp 56 +
STACK CFI c027 .cfa: $rsp 96 +
STACK CFI c073 .cfa: $rsp 56 +
STACK CFI c074 .cfa: $rsp 48 +
STACK CFI c075 .cfa: $rsp 40 +
STACK CFI c077 .cfa: $rsp 32 +
STACK CFI c079 .cfa: $rsp 24 +
STACK CFI c07b .cfa: $rsp 16 +
STACK CFI c07d .cfa: $rsp 8 +
STACK CFI c080 .cfa: $rsp 96 +
STACK CFI INIT c300 42c .cfa: $rsp 8 + .ra: .cfa -8 + ^
STACK CFI c302 $r15: .cfa -16 + ^ .cfa: $rsp 16 +
STACK CFI c304 $r14: .cfa -24 + ^ .cfa: $rsp 24 +
STACK CFI c309 $r13: .cfa -32 + ^ .cfa: $rsp 32 +
STACK CFI c30b $r12: .cfa -40 + ^ .cfa: $rsp 40 +
STACK CFI c30c $rbp: .cfa -48 + ^ .cfa: $rsp 48 +
STACK CFI c30d $rbx: .cfa -56 + ^ .cfa: $rsp 56 +
STACK CFI c311 .cfa: $rsp 96 +
STACK CFI c3b8 .cfa: $rsp 56 +
STACK CFI c3b9 .cfa: $rsp 48 +
STACK CFI c3ba .cfa: $rsp 40 +
STACK CFI c3bc .cfa: $rsp 32 +
STACK CFI c3be .cfa: $rsp 24 +
STACK CFI c3c0 .cfa: $rsp 16 +
STACK CFI c3c2 .cfa: $rsp 8 +
STACK CFI c3c8 .cfa: $rsp 96 +
STACK CFI c440 .cfa: $rsp 56 +
STACK CFI c441 .cfa: $rsp 48 +
STACK CFI c442 .cfa: $rsp 40 +
STACK CFI c444 .cfa: $rsp 32 +
STACK CFI c446 .cfa: $rsp 24 +
STACK CFI c448 .cfa: $rsp 16 +
STACK CFI c44a .cfa: $rsp 8 +
STACK CFI c450 .cfa: $rsp 96 +
STACK CFI c5b8 .cfa: $rsp 56 +
STACK CFI c5b9 .cfa: $rsp 48 +
STACK CFI c5ba .cfa: $rsp 40 +
STACK CFI c5bc .cfa: $rsp 32 +
STACK CFI c5be .cfa: $rsp 24 +
STACK CFI c5c0 .cfa: $rsp 16 +
STACK CFI c5c2 .cfa: $rsp 8 +
STACK CFI c5c8 .cfa: $rsp 96 +
STACK CFI INIT b300 4ca .cfa: $rsp 8 + .ra: .cfa -8 + ^
STACK CFI b302 $r15: .cfa -16 + ^ .cfa: $rsp 16 +
STACK CFI b30b $r14: .cfa -24 + ^ .cfa: $rsp 24 +
STACK CFI b313 $r13: .cfa -32 + ^ .cfa: $rsp 32 +
STACK CFI b315 $r12: .cfa -40 + ^ .cfa: $rsp 40 +
STACK CFI b316 $rbp: .cfa -48 + ^ .cfa: $rsp 48 +
STACK CFI b317 $rbx: .cfa -56 + ^ .cfa: $rsp 56 +
STACK CFI b322 .cfa: $rsp 80 +
STACK CFI b530 .cfa: $rsp 56 +
STACK CFI b531 .cfa: $rsp 48 +
STACK CFI b532 .cfa: $rsp 40 +
STACK CFI b534 .cfa: $rsp 32 +
STACK CFI b536 .cfa: $rsp 24 +
STACK CFI b538 .cfa: $rsp 16 +
STACK CFI b53a .cfa: $rsp 8 +
STACK CFI b540 .cfa: $rsp 80 +
STACK CFI INIT c730 438 .cfa: $rsp 8 + .ra: .cfa -8 + ^
STACK CFI c732 $r15: .cfa -16 + ^ .cfa: $rsp 16 +
STACK CFI c737 $r14: .cfa -24 + ^ .cfa: $rsp 24 +
STACK CFI c739 $r13: .cfa -32 + ^ .cfa: $rsp 32 +
STACK CFI c73b $r12: .cfa -40 + ^ .cfa: $rsp 40 +
STACK CFI c73c $rbp: .cfa -48 + ^ .cfa: $rsp 48 +
STACK CFI c73d $rbx: .cfa -56 + ^ .cfa: $rsp 56 +
STACK CFI c741 .cfa: $rsp 96 +
STACK CFI c800 .cfa: $rsp 56 +
STACK CFI c801 .cfa: $rsp 48 +
STACK CFI c802 .cfa: $rsp 40 +
STACK CFI c804 .cfa: $rsp 32 +
STACK CFI c806 .cfa: $rsp 24 +
STACK CFI c808 .cfa: $rsp 16 +
STACK CFI c80a .cfa: $rsp 8 +
STACK CFI c810 .cfa: $rsp 96 +
STACK CFI c880 .cfa: $rsp 56 +
STACK CFI c881 .cfa: $rsp 48 +
STACK CFI c882 .cfa: $rsp 40 +
STACK CFI c884 .cfa: $rsp 32 +
STACK CFI c886 .cfa: $rsp 24 +
STACK CFI c888 .cfa: $rsp 16 +
STACK CFI c88a .cfa: $rsp 8 +
STACK CFI c890 .cfa: $rsp 96 +
STACK CFI ca00 .cfa: $rsp 56 +
STACK CFI ca01 .cfa: $rsp 48 +
STACK CFI ca02 .cfa: $rsp 40 +
STACK CFI ca04 .cfa: $rsp 32 +
STACK CFI ca06 .cfa: $rsp 24 +
STACK CFI ca08 .cfa: $rsp 16 +
STACK CFI ca0a .cfa: $rsp 8 +
STACK CFI ca10 .cfa: $rsp 96 +
STACK CFI INIT b7d0 83d .cfa: $rsp 8 + .ra: .cfa -8 + ^
STACK CFI b7d2 $r15: .cfa -16 + ^ .cfa: $rsp 16 +
STACK CFI b7de $r14: .cfa -24 + ^ .cfa: $rsp 24 +
STACK CFI b7e0 $r13: .cfa -32 + ^ .cfa: $rsp 32 +
STACK CFI b7e2 $r12: .cfa -40 + ^ .cfa: $rsp 40 +
STACK CFI b7e3 $rbp: .cfa -48 + ^ .cfa: $rsp 48 +
STACK CFI b7e4 $rbx: .cfa -56 + ^ .cfa: $rsp 56 +
STACK CFI b7eb .cfa: $rsp 480 +
STACK CFI b990 .cfa: $rsp 56 +
STACK CFI b991 .cfa: $rsp 48 +
STACK CFI b992 .cfa: $rsp 40 +
STACK CFI b994 .cfa: $rsp 32 +
STACK CFI b996 .cfa: $rsp 24 +
STACK CFI b998 .cfa: $rsp 16 +
STACK CFI b99a .cfa: $rsp 8 +
STACK CFI b99b .cfa: $rsp 480 +
STACK CFI INIT cb70 3 .cfa: $rsp 8 + .ra: .cfa -8 + ^
STACK CFI INIT cb80 b7 .cfa: $rsp 8 + .ra: .cfa -8 + ^
STACK CFI cb82 $r15: .cfa -16 + ^ .cfa: $rsp 16 +
STACK CFI cb84 $r14: .cfa -24 + ^ .cfa: $rsp 24 +
STACK CFI cb86 $r13: .cfa -32 + ^ .cfa: $rsp 32 +
STACK CFI cb88 $r12: .cfa -40 + ^ .cfa: $rsp 40 +
STACK CFI cb89 $rbp: .cfa -48 + ^ .cfa: $rsp 48 +
STACK CFI cb8a $rbx: .cfa -56 + ^ .cfa: $rsp 56 +
STACK CFI cb91 .cfa: $rsp 96 +
STACK CFI cc2c .cfa: $rsp 56 +
STACK CFI cc2d .cfa: $rsp 48 +
STACK CFI cc2e .cfa: $rsp 40 +
STACK CFI cc30 .cfa: $rsp 32 +
STACK CFI cc32 .cfa: $rsp 24 +
STACK CFI cc34 .cfa: $rsp 16 +
STACK CFI cc36 .cfa: $rsp 8 +
STACK CFI INIT d8d0 13 .cfa: $rsp 8 + .ra: .cfa -8 + ^
STACK CFI INIT d8f0 20 .cfa: $rsp 8 + .ra: .cfa -8 + ^
STACK CFI d8f8 $rbx: .cfa -16 + ^ .cfa: $rsp 16 +
STACK CFI d90b .cfa: $rsp 8 +
STACK CFI INIT cc40 c8 .cfa: $rsp 8 + .ra: .cfa -8 + ^
STACK CFI cc42 $r15: .cfa -16 + ^ .cfa: $rsp 16 +
STACK CFI cc44 $r14: .cfa -24 + ^ .cfa: $rsp 24 +
STACK CFI cc46 $r13: .cfa -32 + ^ .cfa: $rsp 32 +
STACK CFI cc48 $r12: .cfa -40 + ^ .cfa: $rsp 40 +
STACK CFI cc4c $rbp: .cfa -48 + ^ .cfa: $rsp 48 +
STACK CFI cc50 $rbx: .cfa -56 + ^ .cfa: $rsp 56 +
STACK CFI cc54 .cfa: $rsp 80 +
STACK CFI cc83 .cfa: $rsp 56 +
STACK CFI cc86 .cfa: $rsp 48 +
STACK CFI cc87 .cfa: $rsp 40 +
STACK CFI cc89 .cfa: $rsp 32 +
STACK CFI cc8b .cfa: $rsp 24 +
STACK CFI cc8d .cfa: $rsp 16 +
STACK CFI cc8f .cfa: $rsp 8 +
STACK CFI cc90 .cfa: $rsp 80 +
STACK CFI INIT cd10 522 .cfa: $rsp 8 + .ra: .cfa -8 + ^
STACK CFI cd12 $r15: .cfa -16 + ^ .cfa: $rsp 16 +
STACK CFI cd14 $r14: .cfa -24 + ^ .cfa: $rsp 24 +
STACK CFI cd16 $r13: .cfa -32 + ^ .cfa: $rsp 32 +
STACK CFI cd18 $r12: .cfa -40 + ^ .cfa: $rsp 40 +
STACK CFI cd19 $rbp: .cfa -48 + ^ .cfa: $rsp 48 +
STACK CFI cd1d $rbx: .cfa -56 + ^ .cfa: $rsp 56 +
STACK CFI cd27 .cfa: $rsp 400 +
STACK CFI cf76 .cfa: $rsp 56 +
STACK CFI cf77 .cfa: $rsp 48 +
STACK CFI cf78 .cfa: $rsp 40 +
STACK CFI cf7a .cfa: $rsp 32 +
STACK CFI cf7c .cfa: $rsp 24 +
STACK CFI cf7e .cfa: $rsp 16 +
STACK CFI cf80 .cfa: $rsp 8 +
STACK CFI cf81 .cfa: $rsp 400 +
STACK CFI INIT d240 ba .cfa: $rsp 8 + .ra: .cfa -8 + ^
STACK CFI d242 $r15: .cfa -16 + ^ .cfa: $rsp 16 +
STACK CFI d244 $r14: .cfa -24 + ^ .cfa: $rsp 24 +
STACK CFI d249 $r13: .cfa -32 + ^ .cfa: $rsp 32 +
STACK CFI d24b $r12: .cfa -40 + ^ .cfa: $rsp 40 +
STACK CFI d24c $rbp: .cfa -48 + ^ .cfa: $rsp 48 +
STACK CFI d24d $rbx: .cfa -56 + ^ .cfa: $rsp 56 +
STACK CFI d251 .cfa: $rsp 64 +
STACK CFI d2ef .cfa: $rsp 56 +
STACK CFI d2f0 .cfa: $rsp 48 +
STACK CFI d2f1 .cfa: $rsp 40 +
STACK CFI d2f3 .cfa: $rsp 32 +
STACK CFI d2f5 .cfa: $rsp 24 +
STACK CFI d2f7 .cfa: $rsp 16 +
STACK CFI d2f9 .cfa: $rsp 8 +
STACK CFI INIT d300 20 .cfa: $rsp 8 + .ra: .cfa -8 + ^
STACK CFI d301 $rbx: .cfa -16 + ^ .cfa: $rsp 16 +
STACK CFI d31f .cfa: $rsp 8 +
STACK CFI INIT d910 2e7 .cfa: $rsp 8 + .ra: .cfa -8 + ^
STACK CFI d912 $r15: .cfa -16 + ^ .cfa: $rsp 16 +
STACK CFI d914 $r14: .cfa -24 + ^ .cfa: $rsp 24 +
STACK CFI d919 $r13: .cfa -32 + ^ .cfa: $rsp 32 +
STACK CFI d91b $r12: .cfa -40 + ^ .cfa: $rsp 40 +
STACK CFI d91c $rbp: .cfa -48 + ^ .cfa: $rsp 48 +
STACK CFI d920 $rbx: .cfa -56 + ^ .cfa: $rsp 56 +
STACK CFI d927 .cfa: $rsp 96 +
STACK CFI d95c .cfa: $rsp 56 +
STACK CFI d95d .cfa: $rsp 48 +
STACK CFI d95e .cfa: $rsp 40 +
STACK CFI d960 .cfa: $rsp 32 +
STACK CFI d962 .cfa: $rsp 24 +
STACK CFI d964 .cfa: $rsp 16 +
STACK CFI d966 .cfa: $rsp 8 +
STACK CFI d970 .cfa: $rsp 96 +
STACK CFI INIT d320 37e .cfa: $rsp 8 + .ra: .cfa -8 + ^
STACK CFI d322 $r15: .cfa -16 + ^ .cfa: $rsp 16 +
STACK CFI d32b $r14: .cfa -24 + ^ .cfa: $rsp 24 +
STACK CFI d32d $r13: .cfa -32 + ^ .cfa: $rsp 32 +
STACK CFI d32f $r12: .cfa -40 + ^ .cfa: $rsp 40 +
STACK CFI d330 $rbp: .cfa -48 + ^ .cfa: $rsp 48 +
STACK CFI d331 $rbx: .cfa -56 + ^ .cfa: $rsp 56 +
STACK CFI d33b .cfa: $rsp 384 +
STACK CFI d497 .cfa: $rsp 56 +
STACK CFI d498 .cfa: $rsp 48 +
STACK CFI d499 .cfa: $rsp 40 +
STACK CFI d49b .cfa: $rsp 32 +
STACK CFI d49d .cfa: $rsp 24 +
STACK CFI d49f .cfa: $rsp 16 +
STACK CFI d4a1 .cfa: $rsp 8 +
STACK CFI d4a8 .cfa: $rsp 384 +
STACK CFI INIT dc00 42c .cfa: $rsp 8 + .ra: .cfa -8 + ^
STACK CFI dc02 $r15: .cfa -16 + ^ .cfa: $rsp 16 +
STACK CFI dc04 $r14: .cfa -24 + ^ .cfa: $rsp 24 +
STACK CFI dc09 $r13: .cfa -32 + ^ .cfa: $rsp 32 +
STACK CFI dc0b $r12: .cfa -40 + ^ .cfa: $rsp 40 +
STACK CFI dc0c $rbp: .cfa -48 + ^ .cfa: $rsp 48 +
STACK CFI dc0d $rbx: .cfa -56 + ^ .cfa: $rsp 56 +
STACK CFI dc11 .cfa: $rsp 96 +
STACK CFI dcb7 .cfa: $rsp 56 +
STACK CFI dcb8 .cfa: $rsp 48 +
STACK CFI dcb9 .cfa: $rsp 40 +
STACK CFI dcbb .cfa: $rsp 32 +
STACK CFI dcbd .cfa: $rsp 24 +
STACK CFI dcbf .cfa: $rsp 16 +
STACK CFI dcc1 .cfa: $rsp 8 +
STACK CFI dcc8 .cfa: $rsp 96 +
STACK CFI dd3f .cfa: $rsp 56 +
STACK CFI dd40 .cfa: $rsp 48 +
STACK CFI dd41 .cfa: $rsp 40 +
STACK CFI dd43 .cfa: $rsp 32 +
STACK CFI dd45 .cfa: $rsp 24 +
STACK CFI dd47 .cfa: $rsp 16 +
STACK CFI dd49 .cfa: $rsp 8 +
STACK CFI dd50 .cfa: $rsp 96 +
STACK CFI deae .cfa: $rsp 56 +
STACK CFI deaf .cfa: $rsp 48 +
STACK CFI deb0 .cfa: $rsp 40 +
STACK CFI deb2 .cfa: $rsp 32 +
STACK CFI deb4 .cfa: $rsp 24 +
STACK CFI deb6 .cfa: $rsp 16 +
STACK CFI deb8 .cfa: $rsp 8 +
STACK CFI dec0 .cfa: $rsp 96 +
STACK CFI INIT d6a0 22c .cfa: $rsp 8 + .ra: .cfa -8 + ^
STACK CFI d6a2 $r15: .cfa -16 + ^ .cfa: $rsp 16 +
STACK CFI d6a4 $r14: .cfa -24 + ^ .cfa: $rsp 24 +
STACK CFI d6a9 $r13: .cfa -32 + ^ .cfa: $rsp 32 +
STACK CFI d6ab $r12: .cfa -40 + ^ .cfa: $rsp 40 +
STACK CFI d6ac $rbp: .cfa -48 + ^ .cfa: $rsp 48 +
STACK CFI d6ad $rbx: .cfa -56 + ^ .cfa: $rsp 56 +
STACK CFI d6b4 .cfa: $rsp 336 +
STACK CFI d85a .cfa: $rsp 56 +
STACK CFI d85b .cfa: $rsp 48 +
STACK CFI d85c .cfa: $rsp 40 +
STACK CFI d85e .cfa: $rsp 32 +
STACK CFI d860 .cfa: $rsp 24 +
STACK CFI d862 .cfa: $rsp 16 +
STACK CFI d864 .cfa: $rsp 8 +
STACK CFI d868 .cfa: $rsp 336 +
STACK CFI INIT e030 d7 .cfa: $rsp 8 + .ra: .cfa -8 + ^
STACK CFI INIT e110 105 .cfa: $rsp 8 + .ra: .cfa -8 + ^
STACK CFI e111 $rbp: .cfa -16 + ^ .cfa: $rsp 16 +
STACK CFI e115 $rbx: .cfa -24 + ^ .cfa: $rsp 24 +
STACK CFI e199 .cfa: $rsp 16 +
STACK CFI e1a0 .cfa: $rsp 8 +
STACK CFI e1a8 .cfa: $rsp 24 +
STACK CFI e1f7 .cfa: $rsp 16 +
STACK CFI e203 .cfa: $rsp 8 +
STACK CFI e204 .cfa: $rsp 24 +
STACK CFI INIT e220 e6 .cfa: $rsp 8 + .ra: .cfa -8 + ^
STACK CFI e231 $r12: .cfa -16 + ^ .cfa: $rsp 16 +
STACK CFI e232 $rbp: .cfa -24 + ^ .cfa: $rsp 24 +
STACK CFI e233 $rbx: .cfa -32 + ^ .cfa: $rsp 32 +
STACK CFI e2a9 $rbx: $rbx .cfa: $rsp 24 +
STACK CFI e2aa $rbp: $rbp .cfa: $rsp 16 +
STACK CFI e2b7 $r12: $r12 .cfa: $rsp 8 +
STACK CFI e2c0 $r12: .cfa -16 + ^ $rbp: .cfa -24 + ^ $rbx: .cfa -32 + ^ .cfa: $rsp 32 +
STACK CFI e2cb $rbx: $rbx .cfa: $rsp 24 +
STACK CFI e2cc $rbp: $rbp .cfa: $rsp 16 +
STACK CFI e2d9 $r12: $r12 .cfa: $rsp 8 +
STACK CFI e2e0 $r12: .cfa -16 + ^ $rbp: .cfa -24 + ^ $rbx: .cfa -32 + ^ .cfa: $rsp 32 +
STACK CFI e2e1 $rbx: $rbx .cfa: $rsp 24 +
STACK CFI e2e2 $rbp: $rbp .cfa: $rsp 16 +
STACK CFI e2ec $r12: $r12 .cfa: $rsp 8 +
STACK CFI e2ed $r12: .cfa -16 + ^ $rbp: .cfa -24 + ^ $rbx: .cfa -32 + ^ .cfa: $rsp 32 +
STACK CFI e2ee $rbx: $rbx .cfa: $rsp 24 +
STACK CFI e2ef $rbp: $rbp .cfa: $rsp 16 +
STACK CFI e2fc $r12: $r12 .cfa: $rsp 8 +
STACK CFI INIT e310 1fa .cfa: $rsp 8 + .ra: .cfa -8 + ^
STACK CFI e312 $r13: .cfa -16 + ^ .cfa: $rsp 16 +
STACK CFI e317 $r12: .cfa -24 + ^ .cfa: $rsp 24 +
STACK CFI e31b $rbp: .cfa -32 + ^ .cfa: $rsp 32 +
STACK CFI e31f $rbx: .cfa -40 + ^ .cfa: $rsp 40 +
STACK CFI e3ee .cfa: $rsp 32 +
STACK CFI e3f7 .cfa: $rsp 24 +
STACK CFI e3f9 .cfa: $rsp 16 +
STACK CFI e3fb .cfa: $rsp 8 +
STACK CFI e400 .cfa: $rsp 40 +
STACK CFI e44a .cfa: $rsp 32 +
STACK CFI e456 .cfa: $rsp 24 +
STACK CFI e458 .cfa: $rsp 16 +
STACK CFI e45a .cfa: $rsp 8 +
STACK CFI e45b .cfa: $rsp 40 +
STACK CFI e45c .cfa: $rsp 32 +
STACK CFI e468 .cfa: $rsp 24 +
STACK CFI e46a .cfa: $rsp 16 +
STACK CFI e46c .cfa: $rsp 8 +
STACK CFI e46d .cfa: $rsp 40 +
STACK CFI e4a1 .cfa: $rsp 32 +
STACK CFI e4b0 .cfa: $rsp 24 +
STACK CFI e4b2 .cfa: $rsp 16 +
STACK CFI e4b4 .cfa: $rsp 8 +
STACK CFI e4b5 .cfa: $rsp 40 +
STACK CFI INIT e510 2b .cfa: $rsp 8 + .ra: .cfa -8 + ^
STACK CFI INIT e540 27f .cfa: $rsp 8 + .ra: .cfa -8 + ^
STACK CFI e542 $r15: .cfa -16 + ^ .cfa: $rsp 16 +
STACK CFI e544 $r14: .cfa -24 + ^ .cfa: $rsp 24 +
STACK CFI e546 $r13: .cfa -32 + ^ .cfa: $rsp 32 +
STACK CFI e548 $r12: .cfa -40 + ^ .cfa: $rsp 40 +
STACK CFI e549 $rbp: .cfa -48 + ^ .cfa: $rsp 48 +
STACK CFI e54a $rbx: .cfa -56 + ^ .cfa: $rsp 56 +
STACK CFI e54e .cfa: $rsp 96 +
STACK CFI e6b4 .cfa: $rsp 56 +
STACK CFI e6b5 .cfa: $rsp 48 +
STACK CFI e6b6 .cfa: $rsp 40 +
STACK CFI e6b8 .cfa: $rsp 32 +
STACK CFI e6ba .cfa: $rsp 24 +
STACK CFI e6bc .cfa: $rsp 16 +
STACK CFI e6be .cfa: $rsp 8 +
STACK CFI e6c0 .cfa: $rsp 96 +
STACK CFI INIT e7c0 1c3 .cfa: $rsp 8 + .ra: .cfa -8 + ^
STACK CFI e7c2 $r14: .cfa -16 + ^ .cfa: $rsp 16 +
STACK CFI e7c9 $r13: .cfa -24 + ^ .cfa: $rsp 24 +
STACK CFI e7ce $r12: .cfa -32 + ^ .cfa: $rsp 32 +
STACK CFI e7cf $rbp: .cfa -40 + ^ .cfa: $rsp 40 +
STACK CFI e7d0 $rbx: .cfa -48 + ^ .cfa: $rsp 48 +
STACK CFI e90c .cfa: $rsp 40 +
STACK CFI e90d .cfa: $rsp 32 +
STACK CFI e90f .cfa: $rsp 24 +
STACK CFI e911 .cfa: $rsp 16 +
STACK CFI e913 .cfa: $rsp 8 +
STACK CFI e918 .cfa: $rsp 48 +
STACK CFI e93c .cfa: $rsp 40 +
STACK CFI e93d .cfa: $rsp 32 +
STACK CFI e93f .cfa: $rsp 24 +
STACK CFI e941 .cfa: $rsp 16 +
STACK CFI e943 .cfa: $rsp 8 +
STACK CFI e944 .cfa: $rsp 48 +
STACK CFI e95a .cfa: $rsp 40 +
STACK CFI e95b .cfa: $rsp 32 +
STACK CFI e95d .cfa: $rsp 24 +
STACK CFI e95f .cfa: $rsp 16 +
STACK CFI e961 .cfa: $rsp 8 +
STACK CFI e962 .cfa: $rsp 48 +
STACK CFI INIT e990 2a7 .cfa: $rsp 8 + .ra: .cfa -8 + ^
STACK CFI e992 $r15: .cfa -16 + ^ .cfa: $rsp 16 +
STACK CFI e994 $r14: .cfa -24 + ^ .cfa: $rsp 24 +
STACK CFI e996 $r13: .cfa -32 + ^ .cfa: $rsp 32 +
STACK CFI e998 $r12: .cfa -40 + ^ .cfa: $rsp 40 +
STACK CFI e999 $rbp: .cfa -48 + ^ .cfa: $rsp 48 +
STACK CFI e99a $rbx: .cfa -56 + ^ .cfa: $rsp 56 +
STACK CFI e99e .cfa: $rsp 104 +
STACK CFI eb3c .cfa: $rsp 56 +
STACK CFI eb3d .cfa: $rsp 48 +
STACK CFI eb3e .cfa: $rsp 40 +
STACK CFI eb40 .cfa: $rsp 32 +
STACK CFI eb42 .cfa: $rsp 24 +
STACK CFI eb44 .cfa: $rsp 16 +
STACK CFI eb46 .cfa: $rsp 8 +
STACK CFI eb50 .cfa: $rsp 104 +
STACK CFI INIT ec40 1f .cfa: $rsp 8 + .ra: .cfa -8 + ^
STACK CFI ec4b .cfa: $rsp 16 +
STACK CFI ec5e .cfa: $rsp 8 +
STACK CFI INIT ec60 5 .cfa: $rsp 8 + .ra: .cfa -8 + ^
STACK CFI INIT ec70 44f .cfa: $rsp 8 + .ra: .cfa -8 + ^
STACK CFI ec72 $r15: .cfa -16 + ^ .cfa: $rsp 16 +
STACK CFI ec74 $r14: .cfa -24 + ^ .cfa: $rsp 24 +
STACK CFI ec76 $r13: .cfa -32 + ^ .cfa: $rsp 32 +
STACK CFI ec78 $r12: .cfa -40 + ^ .cfa: $rsp 40 +
STACK CFI ec79 $rbp: .cfa -48 + ^ .cfa: $rsp 48 +
STACK CFI ec7a $rbx: .cfa -56 + ^ .cfa: $rsp 56 +
STACK CFI ec81 .cfa: $rsp 96 +
STACK CFI ecc7 .cfa: $rsp 56 +
STACK CFI ecca .cfa: $rsp 48 +
STACK CFI eccb .cfa: $rsp 40 +
STACK CFI eccd .cfa: $rsp 32 +
STACK CFI eccf .cfa: $rsp 24 +
STACK CFI ecd1 .cfa: $rsp 16 +
STACK CFI ecd3 .cfa: $rsp 8 +
STACK CFI ecd8 .cfa: $rsp 96 +
STACK CFI ee0e .cfa: $rsp 56 +
STACK CFI ee0f .cfa: $rsp 48 +
STACK CFI ee10 .cfa: $rsp 40 +
STACK CFI ee12 .cfa: $rsp 32 +
STACK CFI ee14 .cfa: $rsp 24 +
STACK CFI ee16 .cfa: $rsp 16 +
STACK CFI ee18 .cfa: $rsp 8 +
STACK CFI ee19 .cfa: $rsp 96 +
STACK CFI INIT f0c0 26f .cfa: $rsp 8 + .ra: .cfa -8 + ^
STACK CFI f0c2 $r14: .cfa -16 + ^ .cfa: $rsp 16 +
STACK CFI f0c7 $r13: .cfa -24 + ^ .cfa: $rsp 24 +
STACK CFI f0c9 $r12: .cfa -32 + ^ .cfa: $rsp 32 +
STACK CFI f0ca $rbp: .cfa -40 + ^ .cfa: $rsp 40 +
STACK CFI f0cb $rbx: .cfa -48 + ^ .cfa: $rsp 48 +
STACK CFI f10a .cfa: $rsp 40 +
STACK CFI f10b .cfa: $rsp 32 +
STACK CFI f10d .cfa: $rsp 24 +
STACK CFI f10f .cfa: $rsp 16 +
STACK CFI f113 .cfa: $rsp 8 +
STACK CFI f118 .cfa: $rsp 48 +
STACK CFI f1b6 .cfa: $rsp 40 +
STACK CFI f1b7 .cfa: $rsp 32 +
STACK CFI f1b9 .cfa: $rsp 24 +
STACK CFI f1bb .cfa: $rsp 16 +
STACK CFI f1c0 .cfa: $rsp 8 +
STACK CFI f1c1 .cfa: $rsp 48 +
STACK CFI INIT f330 13 .cfa: $rsp 8 + .ra: .cfa -8 + ^
STACK CFI f334 .cfa: $rsp 32 +
STACK CFI f342 .cfa: $rsp 8 +
STACK CFI INIT f350 1ff .cfa: $rsp 8 + .ra: .cfa -8 + ^
STACK CFI f352 $r14: .cfa -16 + ^ .cfa: $rsp 16 +
STACK CFI f354 $r13: .cfa -24 + ^ .cfa: $rsp 24 +
STACK CFI f356 $r12: .cfa -32 + ^ .cfa: $rsp 32 +
STACK CFI f35a $rbp: .cfa -40 + ^ .cfa: $rsp 40 +
STACK CFI f35b $rbx: .cfa -48 + ^ .cfa: $rsp 48 +
STACK CFI f367 .cfa: $rsp 96 +
STACK CFI f3e4 .cfa: $rsp 48 +
STACK CFI f3e5 .cfa: $rsp 40 +
STACK CFI f3e6 .cfa: $rsp 32 +
STACK CFI f3e8 .cfa: $rsp 24 +
STACK CFI f3ea .cfa: $rsp 16 +
STACK CFI f3ec .cfa: $rsp 8 +
STACK CFI f3f0 .cfa: $rsp 96 +
STACK CFI f546 .cfa: $rsp 48 +
STACK CFI f547 .cfa: $rsp 40 +
STACK CFI f548 .cfa: $rsp 32 +
STACK CFI f54a .cfa: $rsp 24 +
STACK CFI f54c .cfa: $rsp 16 +
STACK CFI f54e .cfa: $rsp 8 +
STACK CFI INIT f550 5f .cfa: $rsp 8 + .ra: .cfa -8 + ^
STACK CFI f551 $rbp: .cfa -16 + ^ .cfa: $rsp 16 +
STACK CFI f557 $rbx: .cfa -24 + ^ .cfa: $rsp 24 +
STACK CFI f55b .cfa: $rsp 64 +
STACK CFI f591 .cfa: $rsp 24 +
STACK CFI f592 .cfa: $rsp 16 +
STACK CFI f593 .cfa: $rsp 8 +
STACK CFI f598 .cfa: $rsp 64 +
STACK CFI INIT f5b0 11c .cfa: $rsp 8 + .ra: .cfa -8 + ^
STACK CFI f5b2 $r13: .cfa -16 + ^ .cfa: $rsp 16 +
STACK CFI f5b4 $r12: .cfa -24 + ^ .cfa: $rsp 24 +
STACK CFI f5b5 $rbp: .cfa -32 + ^ .cfa: $rsp 32 +
STACK CFI f5b6 $rbx: .cfa -40 + ^ .cfa: $rsp 40 +
STACK CFI f5ba .cfa: $rsp 80 +
STACK CFI f6af .cfa: $rsp 40 +
STACK CFI f6b0 .cfa: $rsp 32 +
STACK CFI f6b1 .cfa: $rsp 24 +
STACK CFI f6b3 .cfa: $rsp 16 +
STACK CFI f6b5 .cfa: $rsp 8 +
STACK CFI f6b6 .cfa: $rsp 80 +
STACK CFI INIT f6d0 10 .cfa: $rsp 8 + .ra: .cfa -8 + ^
STACK CFI INIT f6e0 4b .cfa: $rsp 8 + .ra: .cfa -8 + ^
STACK CFI f6e1 $rbp: .cfa -16 + ^ .cfa: $rsp 16 +
STACK CFI f6e2 $rbx: .cfa -24 + ^ .cfa: $rsp 24 +
STACK CFI f6e9 .cfa: $rsp 32 +
STACK CFI f71c .cfa: $rsp 24 +
STACK CFI f71d .cfa: $rsp 16 +
STACK CFI f71e .cfa: $rsp 8 +
STACK CFI f720 .cfa: $rsp 32 +
STACK CFI INIT f730 5 .cfa: $rsp 8 + .ra: .cfa -8 + ^
STACK CFI INIT f740 17f .cfa: $rsp 8 + .ra: .cfa -8 + ^
STACK CFI f742 $r15: .cfa -16 + ^ .cfa: $rsp 16 +
STACK CFI f744 $r14: .cfa -24 + ^ .cfa: $rsp 24 +
STACK CFI f746 $r13: .cfa -32 + ^ .cfa: $rsp 32 +
STACK CFI f74b $r12: .cfa -40 + ^ .cfa: $rsp 40 +
STACK CFI f74f $rbp: .cfa -48 + ^ .cfa: $rsp 48 +
STACK CFI f753 $rbx: .cfa -56 + ^ .cfa: $rsp 56 +
STACK CFI f75a .cfa: $rsp 208 +
STACK CFI f884 .cfa: $rsp 56 +
STACK CFI f887 .cfa: $rsp 48 +
STACK CFI f888 .cfa: $rsp 40 +
STACK CFI f88a .cfa: $rsp 32 +
STACK CFI f88c .cfa: $rsp 24 +
STACK CFI f88e .cfa: $rsp 16 +
STACK CFI f890 .cfa: $rsp 8 +
STACK CFI f898 .cfa: $rsp 208 +
STACK CFI INIT f8c0 14 .cfa: $rsp 8 + .ra: .cfa -8 + ^
STACK CFI INIT f8e0 40 .cfa: $rsp 8 + .ra: .cfa -8 + ^
STACK CFI f8e6 $rbx: .cfa -16 + ^ .cfa: $rsp 16 +
STACK CFI f901 .cfa: $rsp 8 +
STACK CFI f908 .cfa: $rsp 16 +
STACK CFI f91f .cfa: $rsp 8 +
STACK CFI INIT f920 65 .cfa: $rsp 8 + .ra: .cfa -8 + ^
STACK CFI f922 $r15: .cfa -16 + ^ .cfa: $rsp 16 +
STACK CFI f927 $r14: .cfa -24 + ^ .cfa: $rsp 24 +
STACK CFI f92c $r13: .cfa -32 + ^ .cfa: $rsp 32 +
STACK CFI f931 $r12: .cfa -40 + ^ .cfa: $rsp 40 +
STACK CFI f939 $rbp: .cfa -48 + ^ .cfa: $rsp 48 +
STACK CFI f941 $rbx: .cfa -56 + ^ .cfa: $rsp 56 +
STACK CFI f94e .cfa: $rsp 64 +
STACK CFI f97a .cfa: $rsp 56 +
STACK CFI f97b .cfa: $rsp 48 +
STACK CFI f97c .cfa: $rsp 40 +
STACK CFI f97e .cfa: $rsp 32 +
STACK CFI f980 .cfa: $rsp 24 +
STACK CFI f982 .cfa: $rsp 16 +
STACK CFI f984 .cfa: $rsp 8 +
STACK CFI INIT f990 2 .cfa: $rsp 8 + .ra: .cfa -8 + ^
