MODULE Linux x86_64 138893FB6C7AC12709CF0AABD2A393140 main
FUNC 1a30 29 0 sys_close
FUNC 1a5a 4a 0 google_breakpad::PageAllocator::FreeAll
FUNC 1aa4 20 0 google_breakpad::ProcCpuInfoReader::GetValueAndLen
FUNC 1ac4 20 0 google_breakpad::TypedMDRVA<MDRawDirectory>::CopyIndex
FUNC 1ae4 20 0 google_breakpad::TypedMDRVA<unsigned int>::AllocateObjectAndArray
FUNC 1b04 20 0 google_breakpad::TypedMDRVA<unsigned int>::CopyIndexAfterObject
FUNC 1b24 1b7 0 MinidumpWriter::WriteFile
FUNC 1cdc 68 0 MinidumpWriter::WriteProcFile
FUNC 1d44 20 0 google_breakpad::TypedMDRVA<MDString>::CopyIndexAfterObject
FUNC 1d64 20 0 google_breakpad::TypedMDRVA<MDString>::AllocateObjectAndArray
FUNC 1d84 20 0 google_breakpad::LineReader::PopLine
FUNC 1e8d 39 0 dumpCallback
FUNC 1ec6 18 0 crash
FUNC 1ede 145 0 main
FUNC 2023 3d 0 __static_initialization_and_destruction_0
FUNC 2060 15 0 _GLOBAL__sub_I__Z5crashv
FUNC 2076 bd 0 google_breakpad::MinidumpDescriptor::MinidumpDescriptor
FUNC 2134 12 0 google_breakpad::MinidumpDescriptor::path
FUNC 2146 54 0 google_breakpad::MinidumpDescriptor::~MinidumpDescriptor
FUNC 21a0 f8 0 google_breakpad::ExceptionHandler::InstallHandlersLocked
FUNC 22a0 6c 0 google_breakpad::ExceptionHandler::RestoreHandlersLocked
FUNC 2310 3e0 0 google_breakpad::ExceptionHandler::~ExceptionHandler
FUNC 26f0 ce 0 google_breakpad::ExceptionHandler::SendContinueSignalToChild
FUNC 27c0 47f 0 google_breakpad::ExceptionHandler::GenerateDump
FUNC 2c40 194 0 google_breakpad::ExceptionHandler::HandleSignal
FUNC 2de0 42 0 google_breakpad::ExceptionHandler::HandleSignal
FUNC 2e30 17b 0 google_breakpad::ExceptionHandler::SignalHandler
FUNC 2fb0 56 0 google_breakpad::ExceptionHandler::SimulateSignalDelivery
FUNC 3010 c6 0 google_breakpad::ExceptionHandler::WaitForContinueSignal
FUNC 30e0 58 0 google_breakpad::ExceptionHandler::DoDump
FUNC 3140 28 0 google_breakpad::ExceptionHandler::ThreadEntry
FUNC 3170 163 0 google_breakpad::ExceptionHandler::WriteMinidump
FUNC 32e0 d1 0 google_breakpad::ExceptionHandler::AddMappingInfo
FUNC 33c0 5d 0 google_breakpad::ExceptionHandler::RegisterAppMemory
FUNC 3420 31 0 google_breakpad::ExceptionHandler::UnregisterAppMemory
FUNC 3460 170 0 google_breakpad::ExceptionHandler::WriteMinidumpForChild
FUNC 35d0 319 0 google_breakpad::ExceptionHandler::ExceptionHandler
FUNC 38f0 169 0 google_breakpad::ExceptionHandler::WriteMinidump
FUNC 3a60 19a 0 std::vector<google_breakpad::ExceptionHandler*, std::allocator<google_breakpad::ExceptionHandler*> >::_M_insert_aux
FUNC 3c00 6f 0 google_breakpad::MinidumpDescriptor::MinidumpDescriptor
FUNC 3c70 2d7 0 google_breakpad::MinidumpDescriptor::UpdatePath
FUNC 3f50 86 0 google_breakpad::MinidumpDescriptor::operator=
FUNC 3fe0 34 0 logger::write
FUNC 4020 4d 0 MinidumpWriter::~MinidumpWriter
FUNC 4070 1e 0 google_breakpad::TypedMDRVA<MDRawDirectory>::CopyIndex
FUNC 4090 15c9 0 MinidumpWriter::WriteThreadListStream
FUNC 5660 1fb2 0 MinidumpWriter::Dump
FUNC 7620 3e0 0 WriteMinidumpImpl
FUNC 7a00 e1 0 google_breakpad::WriteMinidump
FUNC 7af0 e1 0 google_breakpad::WriteMinidump
FUNC 7be0 2b 0 google_breakpad::WriteMinidump
FUNC 7c10 2a 0 google_breakpad::WriteMinidump
FUNC 7c40 2c 0 google_breakpad::WriteMinidump
FUNC 7c70 2b 0 google_breakpad::WriteMinidump
FUNC 7ca0 452 0 google_breakpad::WriteMinidump
FUNC 8100 302 0 google_breakpad::WriteMinidump
FUNC 8410 13f 0 google_breakpad::PageAllocator::Alloc
FUNC 8550 249 0 google_breakpad::ProcCpuInfoReader::GetNextField
FUNC 87a0 22 0 google_breakpad::TypedMDRVA<unsigned int>::~TypedMDRVA
FUNC 87d0 22 0 google_breakpad::TypedMDRVA<MDRawContextAMD64>::~TypedMDRVA
FUNC 8800 22 0 google_breakpad::TypedMDRVA<MDRawSystemInfo>::~TypedMDRVA
FUNC 8830 22 0 google_breakpad::TypedMDRVA<MDRawLinkMap>::~TypedMDRVA
FUNC 8860 22 0 google_breakpad::TypedMDRVA<MDRawDebug>::~TypedMDRVA
FUNC 8890 307 0 std::vector<MDMemoryDescriptor, google_breakpad::PageStdAllocator<MDMemoryDescriptor> >::_M_insert_aux
FUNC 8ba0 3c4 0 std::vector<char, google_breakpad::PageStdAllocator<char> >::_M_fill_insert
FUNC 8f70 1a 0 google_breakpad::MinidumpFileWriter::MinidumpFileWriter
FUNC 8f90 78 0 google_breakpad::MinidumpFileWriter::Open
FUNC 9010 2c 0 google_breakpad::MinidumpFileWriter::SetFile
FUNC 9040 69 0 google_breakpad::MinidumpFileWriter::Close
FUNC 90b0 15 0 google_breakpad::MinidumpFileWriter::~MinidumpFileWriter
FUNC 90d0 b6 0 google_breakpad::MinidumpFileWriter::Allocate
FUNC 9190 ff 0 google_breakpad::MinidumpFileWriter::Copy
FUNC 9290 b4 0 google_breakpad::MinidumpFileWriter::CopyStringToMDString
FUNC 9350 b5 0 google_breakpad::MinidumpFileWriter::CopyStringToMDString
FUNC 9410 41 0 google_breakpad::UntypedMDRVA::Allocate
FUNC 9460 88 0 google_breakpad::UntypedMDRVA::Copy
FUNC 94f0 c1 0 google_breakpad::MinidumpFileWriter::WriteMemory
FUNC 95c0 5 0 google_breakpad::MinidumpFileWriter::WriteString
FUNC 95d0 5 0 google_breakpad::MinidumpFileWriter::WriteString
FUNC 95e0 22 0 google_breakpad::TypedMDRVA<MDString>::~TypedMDRVA
FUNC 9610 1d9 0 google_breakpad::MinidumpFileWriter::WriteStringCore<wchar_t>
FUNC 97f0 1d7 0 google_breakpad::MinidumpFileWriter::WriteStringCore<char>
FUNC 99d0 91 0 google_breakpad::UTF8ToUTF16Char
FUNC 9a70 56 0 google_breakpad::UTF32ToUTF16Char
FUNC 9ad0 15b 0 google_breakpad::UTF16ToUTF8
FUNC 9c30 e3 0 google_breakpad::UTF32ToUTF16
FUNC 9d20 e3 0 google_breakpad::UTF8ToUTF16
FUNC 9e10 283 0 std::vector<short unsigned int, std::allocator<short unsigned int> >::_M_fill_insert
FUNC a0a0 73 0 CreateGUID
FUNC a120 c0 0 GUIDToString
FUNC a1e0 16 0 GUIDGenerator::InitOnceImpl
FUNC a200 1e 0 my_strlen
FUNC a220 33 0 my_strcmp
FUNC a260 56 0 my_strncmp
FUNC a2c0 4c 0 my_strtoui
FUNC a310 36 0 my_uint_len
FUNC a350 3a 0 my_uitos
FUNC a390 2b 0 my_strchr
FUNC a3c0 26 0 my_strrchr
FUNC a3f0 2b 0 my_memchr
FUNC a420 64 0 my_read_hex_ptr
FUNC a490 3a 0 my_read_decimal_ptr
FUNC a4d0 1f 0 my_memset
FUNC a4f0 38 0 my_strlcpy
FUNC a530 45 0 my_strlcat
FUNC a580 6c 0 my_isspace
FUNC a5f0 f 0 google_breakpad::::CrashGenerationClientImpl::~CrashGenerationClientImpl
FUNC a600 13 0 google_breakpad::::CrashGenerationClientImpl::~CrashGenerationClientImpl
FUNC a620 212 0 google_breakpad::::CrashGenerationClientImpl::RequestDump
FUNC a840 24 0 google_breakpad::CrashGenerationClient::TryCreate
FUNC a870 f 0 google_breakpad::CrashGenerationClient::~CrashGenerationClient
FUNC a880 13 0 google_breakpad::CrashGenerationClient::~CrashGenerationClient
FUNC a8a0 69 0 google_breakpad::LinuxDumper::~LinuxDumper
FUNC a910 12 0 google_breakpad::LinuxDumper::~LinuxDumper
FUNC a930 1ec 0 google_breakpad::LinuxDumper::ElfFileSoName
FUNC ab20 131 0 google_breakpad::LinuxDumper::ReadAuxv
FUNC ac60 32 0 google_breakpad::LinuxDumper::Init
FUNC aca0 4b 0 google_breakpad::LinuxDumper::FindMapping
FUNC acf0 73 0 google_breakpad::LinuxDumper::GetStackInfo
FUNC ad70 214 0 google_breakpad::LinuxDumper::HandleDeletedFileInMapping
FUNC af90 35a 0 google_breakpad::LinuxDumper::ElfFileIdentifierForMapping
FUNC b2f0 4ca 0 google_breakpad::LinuxDumper::LinuxDumper
FUNC b7c0 83d 0 google_breakpad::LinuxDumper::EnumerateMappings
FUNC c000 2eb 0 std::vector<google_breakpad::MappingInfo*, google_breakpad::PageStdAllocator<google_breakpad::MappingInfo*> >::_M_insert_aux
FUNC c2f0 42c 0 std::vector<long unsigned int, google_breakpad::PageStdAllocator<long unsigned int> >::_M_fill_insert
FUNC c720 438 0 std::vector<google_breakpad::MappingInfo*, google_breakpad::PageStdAllocator<google_breakpad::MappingInfo*> >::_M_fill_insert
FUNC cb60 3 0 google_breakpad::LinuxPtraceDumper::IsPostMortem
FUNC cb70 b7 0 google_breakpad::LinuxPtraceDumper::CopyFromProcess
FUNC cc30 c8 0 google_breakpad::LinuxPtraceDumper::BuildProcPath
FUNC cd00 522 0 google_breakpad::LinuxPtraceDumper::GetThreadInfoByIndex
FUNC d230 ba 0 google_breakpad::LinuxPtraceDumper::ThreadsResume
FUNC d2f0 20 0 google_breakpad::LinuxPtraceDumper::LinuxPtraceDumper
FUNC d310 37e 0 google_breakpad::LinuxPtraceDumper::EnumerateThreads
FUNC d690 22c 0 google_breakpad::LinuxPtraceDumper::ThreadsSuspend
FUNC d8c0 13 0 google_breakpad::LinuxPtraceDumper::~LinuxPtraceDumper
FUNC d8e0 20 0 google_breakpad::LinuxPtraceDumper::~LinuxPtraceDumper
FUNC d900 2e7 0 std::vector<int, google_breakpad::PageStdAllocator<int> >::_M_insert_aux
FUNC dbf0 42c 0 std::vector<int, google_breakpad::PageStdAllocator<int> >::_M_fill_insert
FUNC e020 d7 0 isLegalUTF8
FUNC e100 105 0 ConvertUTF32toUTF16
FUNC e210 e6 0 ConvertUTF16toUTF32
FUNC e300 1fa 0 ConvertUTF16toUTF8
FUNC e500 2b 0 isLegalUTF8Sequence
FUNC e530 27f 0 ConvertUTF8toUTF16
FUNC e7b0 1c3 0 ConvertUTF32toUTF8
FUNC e980 2a7 0 ConvertUTF8toUTF32
FUNC ec30 1f 0 google_breakpad::IsValidElf
FUNC ec50 5 0 google_breakpad::ElfClass
FUNC ec60 44f 0 google_breakpad::FindElfSection
FUNC f0b0 26f 0 google_breakpad::FindElfSegment
FUNC f320 13 0 google_breakpad::FileID::FileID
FUNC f340 1ff 0 google_breakpad::FileID::ElfFileIdentifierFromMappedFile
FUNC f540 5f 0 google_breakpad::FileID::ElfFileIdentifier
FUNC f5a0 11c 0 google_breakpad::FileID::ConvertIdentifierToString
FUNC f6c0 10 0 google_breakpad::MemoryMappedFile::MemoryMappedFile
FUNC f6d0 4b 0 google_breakpad::MemoryMappedFile::Unmap
FUNC f720 5 0 google_breakpad::MemoryMappedFile::~MemoryMappedFile
FUNC f730 17f 0 google_breakpad::MemoryMappedFile::Map
FUNC f8b0 14 0 google_breakpad::MemoryMappedFile::MemoryMappedFile
FUNC f8d0 40 0 google_breakpad::SafeReadLink
STACK CFI INIT 1da4 2a .cfa: $rsp 8 + .ra: .cfa -8 + ^
STACK CFI INIT 1630 400 .cfa: $rsp 16 + .ra: .cfa -8 + ^
STACK CFI 1636 .cfa: $rsp 24 +
STACK CFI INIT 2076 bd .cfa: $rsp 8 + .ra: .cfa -8 + ^
STACK CFI 2077 $rbp: .cfa -16 + ^ .cfa: $rsp 16 +
STACK CFI 207a .cfa: $rbp 16 +
STACK CFI 207f $rbx: .cfa -24 + ^
STACK CFI 2132 .cfa: $rsp 8 +
STACK CFI INIT 2134 12 .cfa: $rsp 8 + .ra: .cfa -8 + ^
STACK CFI 2135 $rbp: .cfa -16 + ^ .cfa: $rsp 16 +
STACK CFI 2138 .cfa: $rbp 16 +
STACK CFI 2145 .cfa: $rsp 8 +
STACK CFI INIT 1e8d 39 .cfa: $rsp 8 + .ra: .cfa -8 + ^
STACK CFI 1e8e $rbp: .cfa -16 + ^ .cfa: $rsp 16 +
STACK CFI 1e91 .cfa: $rbp 16 +
STACK CFI 1ec5 .cfa: $rsp 8 +
STACK CFI INIT 1ec6 18 .cfa: $rsp 8 + .ra: .cfa -8 + ^
STACK CFI 1ec7 $rbp: .cfa -16 + ^ .cfa: $rsp 16 +
STACK CFI 1eca .cfa: $rbp 16 +
STACK CFI 1edd .cfa: $rsp 8 +
STACK CFI INIT 2146 54 .cfa: $rsp 8 + .ra: .cfa -8 + ^
STACK CFI 2147 $rbp: .cfa -16 + ^ .cfa: $rsp 16 +
STACK CFI 214a .cfa: $rbp 16 +
STACK CFI 214f $rbx: .cfa -24 + ^
STACK CFI 2199 .cfa: $rsp 8 +
STACK CFI INIT 1ede 145 .cfa: $rsp 8 + .ra: .cfa -8 + ^
STACK CFI 1edf $rbp: .cfa -16 + ^ .cfa: $rsp 16 +
STACK CFI 1ee2 .cfa: $rbp 16 +
STACK CFI 1eea $rbx: .cfa -24 + ^
STACK CFI 2022 .cfa: $rsp 8 +
STACK CFI INIT 2023 3d .cfa: $rsp 8 + .ra: .cfa -8 + ^
STACK CFI 2024 $rbp: .cfa -16 + ^ .cfa: $rsp 16 +
STACK CFI 2027 .cfa: $rbp 16 +
STACK CFI 205f .cfa: $rsp 8 +
STACK CFI INIT 2060 15 .cfa: $rsp 8 + .ra: .cfa -8 + ^
STACK CFI 2061 $rbp: .cfa -16 + ^ .cfa: $rsp 16 +
STACK CFI 2064 .cfa: $rbp 16 +
STACK CFI 2074 .cfa: $rsp 8 +
STACK CFI INIT 21a0 f8 .cfa: $rsp 8 + .ra: .cfa -8 + ^
STACK CFI 21af $r13: .cfa -16 + ^ .cfa: $rsp 16 +
STACK CFI 21b1 $r12: .cfa -24 + ^ .cfa: $rsp 24 +
STACK CFI 21b9 $rbp: .cfa -32 + ^ .cfa: $rsp 32 +
STACK CFI 21c1 $rbx: .cfa -40 + ^ .cfa: $rsp 40 +
STACK CFI 21cf .cfa: $rsp 208 +
STACK CFI 226b .cfa: $rsp 40 +
STACK CFI 2271 $rbx: $rbx .cfa: $rsp 32 +
STACK CFI 2272 $rbp: $rbp .cfa: $rsp 24 +
STACK CFI 2274 $r12: $r12 .cfa: $rsp 16 +
STACK CFI 2276 $r13: $r13 .cfa: $rsp 8 +
STACK CFI 2288 $r12: .cfa -24 + ^ $r13: .cfa -16 + ^ $rbp: .cfa -32 + ^ $rbx: .cfa -40 + ^ .cfa: $rsp 208 +
STACK CFI 228f .cfa: $rsp 40 +
STACK CFI 2292 $rbx: $rbx .cfa: $rsp 32 +
STACK CFI 2293 $rbp: $rbp .cfa: $rsp 24 +
STACK CFI 2295 $r12: $r12 .cfa: $rsp 16 +
STACK CFI 2297 $r13: $r13 .cfa: $rsp 8 +
STACK CFI INIT 22a0 6c .cfa: $rsp 8 + .ra: .cfa -8 + ^
STACK CFI 22ab $r13: .cfa -16 + ^ .cfa: $rsp 16 +
STACK CFI 22b4 $r12: .cfa -24 + ^ .cfa: $rsp 24 +
STACK CFI 22b5 $rbp: .cfa -32 + ^ .cfa: $rsp 32 +
STACK CFI 22bd $rbx: .cfa -40 + ^ .cfa: $rsp 40 +
STACK CFI 22c8 .cfa: $rsp 48 +
STACK CFI 22f8 .cfa: $rsp 40 +
STACK CFI 22f9 $rbx: $rbx .cfa: $rsp 32 +
STACK CFI 22fa $rbp: $rbp .cfa: $rsp 24 +
STACK CFI 22fc $r12: $r12 .cfa: $rsp 16 +
STACK CFI 22fe $r13: $r13 .cfa: $rsp 8 +
STACK CFI 2300 $r12: .cfa -24 + ^ $r13: .cfa -16 + ^ $rbp: .cfa -32 + ^ $rbx: .cfa -40 + ^ .cfa: $rsp 48 +
STACK CFI INIT 2310 3e0 .cfa: $rsp 8 + .ra: .cfa -8 + ^
STACK CFI 2312 $r14: .cfa -16 + ^ .cfa: $rsp 16 +
STACK CFI 2314 $r13: .cfa -24 + ^ .cfa: $rsp 24 +
STACK CFI 2316 $r12: .cfa -32 + ^ .cfa: $rsp 32 +
STACK CFI 2317 $rbp: .cfa -40 + ^ .cfa: $rsp 40 +
STACK CFI 2318 $rbx: .cfa -48 + ^ .cfa: $rsp 48 +
STACK CFI 231f .cfa: $rsp 112 +
STACK CFI 24ac .cfa: $rsp 48 +
STACK CFI 24ad .cfa: $rsp 40 +
STACK CFI 24ae .cfa: $rsp 32 +
STACK CFI 24b0 .cfa: $rsp 24 +
STACK CFI 24b2 .cfa: $rsp 16 +
STACK CFI 24b4 .cfa: $rsp 8 +
STACK CFI 24b8 .cfa: $rsp 112 +
STACK CFI INIT 26f0 ce .cfa: $rsp 8 + .ra: .cfa -8 + ^
STACK CFI 26f2 $r15: .cfa -16 + ^ .cfa: $rsp 16 +
STACK CFI 26f4 $r14: .cfa -24 + ^ .cfa: $rsp 24 +
STACK CFI 26f9 $r13: .cfa -32 + ^ .cfa: $rsp 32 +
STACK CFI 2702 $r12: .cfa -40 + ^ .cfa: $rsp 40 +
STACK CFI 2709 $rbp: .cfa -48 + ^ .cfa: $rsp 48 +
STACK CFI 270f $rbx: .cfa -56 + ^ .cfa: $rsp 56 +
STACK CFI 2713 .cfa: $rsp 64 +
STACK CFI 277d .cfa: $rsp 56 +
STACK CFI 278a .cfa: $rsp 48 +
STACK CFI 278b .cfa: $rsp 40 +
STACK CFI 278d .cfa: $rsp 32 +
STACK CFI 278f .cfa: $rsp 24 +
STACK CFI 2791 .cfa: $rsp 16 +
STACK CFI 2793 .cfa: $rsp 8 +
STACK CFI 27a0 .cfa: $rsp 64 +
STACK CFI 27a9 .cfa: $rsp 56 +
STACK CFI 27aa .cfa: $rsp 48 +
STACK CFI 27ab .cfa: $rsp 40 +
STACK CFI 27ad .cfa: $rsp 32 +
STACK CFI 27af .cfa: $rsp 24 +
STACK CFI 27b1 .cfa: $rsp 16 +
STACK CFI 27b3 .cfa: $rsp 8 +
STACK CFI 27b4 .cfa: $rsp 64 +
STACK CFI INIT 27c0 47f .cfa: $rsp 8 + .ra: .cfa -8 + ^
STACK CFI 27c2 $r15: .cfa -16 + ^ .cfa: $rsp 16 +
STACK CFI 27c4 $r14: .cfa -24 + ^ .cfa: $rsp 24 +
STACK CFI 27c6 $r13: .cfa -32 + ^ .cfa: $rsp 32 +
STACK CFI 27c8 $r12: .cfa -40 + ^ .cfa: $rsp 40 +
STACK CFI 27c9 $rbp: .cfa -48 + ^ .cfa: $rsp 48 +
STACK CFI 27cd $rbx: .cfa -56 + ^ .cfa: $rsp 56 +
STACK CFI 27d4 .cfa: $rsp 144 +
STACK CFI 27ee .cfa: $rsp 56 +
STACK CFI 27f1 .cfa: $rsp 48 +
STACK CFI 27f2 .cfa: $rsp 40 +
STACK CFI 27f4 .cfa: $rsp 32 +
STACK CFI 27f6 .cfa: $rsp 24 +
STACK CFI 27f8 .cfa: $rsp 16 +
STACK CFI 27fa .cfa: $rsp 8 +
STACK CFI 2800 .cfa: $rsp 144 +
STACK CFI INIT 2c40 194 .cfa: $rsp 8 + .ra: .cfa -8 + ^
STACK CFI 2c42 $r13: .cfa -16 + ^ .cfa: $rsp 16 +
STACK CFI 2c44 $r12: .cfa -24 + ^ .cfa: $rsp 24 +
STACK CFI 2c48 $rbp: .cfa -32 + ^ .cfa: $rsp 32 +
STACK CFI 2c4c $rbx: .cfa -40 + ^ .cfa: $rsp 40 +
STACK CFI 2c56 .cfa: $rsp 1632 +
STACK CFI 2d90 .cfa: $rsp 40 +
STACK CFI 2d91 .cfa: $rsp 32 +
STACK CFI 2d92 .cfa: $rsp 24 +
STACK CFI 2d94 .cfa: $rsp 16 +
STACK CFI 2d96 .cfa: $rsp 8 +
STACK CFI 2da0 .cfa: $rsp 1632 +
STACK CFI INIT 2de0 42 .cfa: $rsp 8 + .ra: .cfa -8 + ^
STACK CFI 2de2 $r12: .cfa -16 + ^ .cfa: $rsp 16 +
STACK CFI 2de6 $rbp: .cfa -24 + ^ .cfa: $rsp 24 +
STACK CFI 2dea $rbx: .cfa -32 + ^ .cfa: $rsp 32 +
STACK CFI 2e00 .cfa: $rsp 24 +
STACK CFI 2e01 .cfa: $rsp 16 +
STACK CFI 2e05 .cfa: $rsp 8 +
STACK CFI 2e10 .cfa: $rsp 32 +
STACK CFI 2e1a .cfa: $rsp 24 +
STACK CFI 2e1b .cfa: $rsp 16 +
STACK CFI 2e1d .cfa: $rsp 8 +
STACK CFI INIT 2e30 17b .cfa: $rsp 8 + .ra: .cfa -8 + ^
STACK CFI 2e32 $r15: .cfa -16 + ^ .cfa: $rsp 16 +
STACK CFI 2e34 $r14: .cfa -24 + ^ .cfa: $rsp 24 +
STACK CFI 2e36 $r13: .cfa -32 + ^ .cfa: $rsp 32 +
STACK CFI 2e3b $r12: .cfa -40 + ^ .cfa: $rsp 40 +
STACK CFI 2e3f $rbp: .cfa -48 + ^ .cfa: $rsp 48 +
STACK CFI 2e42 $rbx: .cfa -56 + ^ .cfa: $rsp 56 +
STACK CFI 2e49 .cfa: $rsp 224 +
STACK CFI 2ef4 .cfa: $rsp 56 +
STACK CFI 2ef5 .cfa: $rsp 48 +
STACK CFI 2ef6 .cfa: $rsp 40 +
STACK CFI 2ef8 .cfa: $rsp 32 +
STACK CFI 2efa .cfa: $rsp 24 +
STACK CFI 2efc .cfa: $rsp 16 +
STACK CFI 2efe .cfa: $rsp 8 +
STACK CFI 2f00 .cfa: $rsp 224 +
STACK CFI INIT 2fb0 56 .cfa: $rsp 8 + .ra: .cfa -8 + ^
STACK CFI 2fb7 .cfa: $rsp 1104 +
STACK CFI 3005 .cfa: $rsp 8 +
STACK CFI INIT 3010 c6 .cfa: $rsp 8 + .ra: .cfa -8 + ^
STACK CFI 3012 $r15: .cfa -16 + ^ .cfa: $rsp 16 +
STACK CFI 3014 $r14: .cfa -24 + ^ .cfa: $rsp 24 +
STACK CFI 3019 $r13: .cfa -32 + ^ .cfa: $rsp 32 +
STACK CFI 301b $r12: .cfa -40 + ^ .cfa: $rsp 40 +
STACK CFI 3022 $rbp: .cfa -48 + ^ .cfa: $rsp 48 +
STACK CFI 3025 $rbx: .cfa -56 + ^ .cfa: $rsp 56 +
STACK CFI 3029 .cfa: $rsp 80 +
STACK CFI 30a6 .cfa: $rsp 56 +
STACK CFI 30a7 .cfa: $rsp 48 +
STACK CFI 30a8 .cfa: $rsp 40 +
STACK CFI 30aa .cfa: $rsp 32 +
STACK CFI 30ac .cfa: $rsp 24 +
STACK CFI 30ae .cfa: $rsp 16 +
STACK CFI 30b0 .cfa: $rsp 8 +
STACK CFI 30b8 .cfa: $rsp 80 +
STACK CFI 30c1 .cfa: $rsp 56 +
STACK CFI 30c2 .cfa: $rsp 48 +
STACK CFI 30c3 .cfa: $rsp 40 +
STACK CFI 30c5 .cfa: $rsp 32 +
STACK CFI 30c7 .cfa: $rsp 24 +
STACK CFI 30c9 .cfa: $rsp 16 +
STACK CFI 30cb .cfa: $rsp 8 +
STACK CFI 30cc .cfa: $rsp 80 +
STACK CFI INIT 30e0 58 .cfa: $rsp 8 + .ra: .cfa -8 + ^
STACK CFI 30e4 .cfa: $rsp 32 +
STACK CFI 3114 .cfa: $rsp 8 +
STACK CFI 3118 .cfa: $rsp 32 +
STACK CFI 3137 .cfa: $rsp 8 +
STACK CFI INIT 3140 28 .cfa: $rsp 8 + .ra: .cfa -8 + ^
STACK CFI 3141 $rbx: .cfa -16 + ^ .cfa: $rsp 16 +
STACK CFI 3167 .cfa: $rsp 8 +
STACK CFI INIT 3170 163 .cfa: $rsp 8 + .ra: .cfa -8 + ^
STACK CFI 3171 $rbx: .cfa -16 + ^ .cfa: $rsp 16 +
STACK CFI 3178 .cfa: $rsp 1616 +
STACK CFI 31dc .cfa: $rsp 16 +
STACK CFI 31dd .cfa: $rsp 8 +
STACK CFI 31e0 .cfa: $rsp 1616 +
STACK CFI 32a7 .cfa: $rsp 16 +
STACK CFI 32a8 .cfa: $rsp 8 +
STACK CFI 32b0 .cfa: $rsp 1616 +
STACK CFI INIT 32e0 d1 .cfa: $rsp 8 + .ra: .cfa -8 + ^
STACK CFI 32e2 $r13: .cfa -16 + ^ .cfa: $rsp 16 +
STACK CFI 32ec $r12: .cfa -24 + ^ .cfa: $rsp 24 +
STACK CFI 32f4 $rbp: .cfa -32 + ^ .cfa: $rsp 32 +
STACK CFI 32f5 $rbx: .cfa -40 + ^ .cfa: $rsp 40 +
STACK CFI 32fc .cfa: $rsp 640 +
STACK CFI 339b .cfa: $rsp 40 +
STACK CFI 33a2 .cfa: $rsp 32 +
STACK CFI 33a3 .cfa: $rsp 24 +
STACK CFI 33a5 .cfa: $rsp 16 +
STACK CFI 33a7 .cfa: $rsp 8 +
STACK CFI 33ac .cfa: $rsp 640 +
STACK CFI INIT 33c0 5d .cfa: $rsp 8 + .ra: .cfa -8 + ^
STACK CFI 33c2 $r12: .cfa -16 + ^ .cfa: $rsp 16 +
STACK CFI 33c6 $rbp: .cfa -24 + ^ .cfa: $rsp 24 +
STACK CFI 33cb $rbx: .cfa -32 + ^ .cfa: $rsp 32 +
STACK CFI 3407 .cfa: $rsp 24 +
STACK CFI 340e .cfa: $rsp 16 +
STACK CFI 3410 .cfa: $rsp 8 +
STACK CFI 3418 .cfa: $rsp 32 +
STACK CFI 3419 .cfa: $rsp 24 +
STACK CFI 341a .cfa: $rsp 16 +
STACK CFI 341c .cfa: $rsp 8 +
STACK CFI INIT 3420 31 .cfa: $rsp 8 + .ra: .cfa -8 + ^
STACK CFI 3421 $rbx: .cfa -16 + ^ .cfa: $rsp 16 +
STACK CFI 343f .cfa: $rsp 8 +
STACK CFI 3440 .cfa: $rsp 16 +
STACK CFI 344c .cfa: $rsp 8 +
STACK CFI INIT 3460 170 .cfa: $rsp 8 + .ra: .cfa -8 + ^
STACK CFI 3462 $r15: .cfa -16 + ^ .cfa: $rsp 16 +
STACK CFI 346a $r14: .cfa -24 + ^ .cfa: $rsp 24 +
STACK CFI 346f $r13: .cfa -32 + ^ .cfa: $rsp 32 +
STACK CFI 3474 $r12: .cfa -40 + ^ .cfa: $rsp 40 +
STACK CFI 3478 $rbp: .cfa -48 + ^ .cfa: $rsp 48 +
STACK CFI 3479 $rbx: .cfa -56 + ^ .cfa: $rsp 56 +
STACK CFI 347d .cfa: $rsp 144 +
STACK CFI 3518 .cfa: $rsp 56 +
STACK CFI 3519 .cfa: $rsp 48 +
STACK CFI 351a .cfa: $rsp 40 +
STACK CFI 351c .cfa: $rsp 32 +
STACK CFI 351e .cfa: $rsp 24 +
STACK CFI 3520 .cfa: $rsp 16 +
STACK CFI 3522 .cfa: $rsp 8 +
STACK CFI 3523 .cfa: $rsp 144 +
STACK CFI INIT 3a60 19a .cfa: $rsp 8 + .ra: .cfa -8 + ^
STACK CFI 3a62 $r14: .cfa -16 + ^ .cfa: $rsp 16 +
STACK CFI 3a64 $r13: .cfa -24 + ^ .cfa: $rsp 24 +
STACK CFI 3a66 $r12: .cfa -32 + ^ .cfa: $rsp 32 +
STACK CFI 3a67 $rbp: .cfa -40 + ^ .cfa: $rsp 40 +
STACK CFI 3a6b $rbx: .cfa -48 + ^ .cfa: $rsp 48 +
STACK CFI 3a72 .cfa: $rsp 64 +
STACK CFI 3abe .cfa: $rsp 48 +
STACK CFI 3abf .cfa: $rsp 40 +
STACK CFI 3ac0 .cfa: $rsp 32 +
STACK CFI 3ac2 .cfa: $rsp 24 +
STACK CFI 3ac4 .cfa: $rsp 16 +
STACK CFI 3ac6 .cfa: $rsp 8 +
STACK CFI 3ad0 .cfa: $rsp 64 +
STACK CFI INIT 35d0 319 .cfa: $rsp 8 + .ra: .cfa -8 + ^
STACK CFI 35d2 $r15: .cfa -16 + ^ .cfa: $rsp 16 +
STACK CFI 35d7 $r14: .cfa -24 + ^ .cfa: $rsp 24 +
STACK CFI 35dd $r13: .cfa -32 + ^ .cfa: $rsp 32 +
STACK CFI 35df $r12: .cfa -40 + ^ .cfa: $rsp 40 +
STACK CFI 35e0 $rbp: .cfa -48 + ^ .cfa: $rsp 48 +
STACK CFI 35e1 $rbx: .cfa -56 + ^ .cfa: $rsp 56 +
STACK CFI 35e8 .cfa: $rsp 80 +
STACK CFI 36ca .cfa: $rsp 56 +
STACK CFI 36cb .cfa: $rsp 48 +
STACK CFI 36cc .cfa: $rsp 40 +
STACK CFI 36ce .cfa: $rsp 32 +
STACK CFI 36d0 .cfa: $rsp 24 +
STACK CFI 36d2 .cfa: $rsp 16 +
STACK CFI 36d4 .cfa: $rsp 8 +
STACK CFI 36d8 .cfa: $rsp 80 +
STACK CFI INIT 38f0 169 .cfa: $rsp 8 + .ra: .cfa -8 + ^
STACK CFI 38f2 $r14: .cfa -16 + ^ .cfa: $rsp 16 +
STACK CFI 38f7 $r13: .cfa -24 + ^ .cfa: $rsp 24 +
STACK CFI 38fc $r12: .cfa -32 + ^ .cfa: $rsp 32 +
STACK CFI 38fd $rbp: .cfa -40 + ^ .cfa: $rsp 40 +
STACK CFI 3904 $rbx: .cfa -48 + ^ .cfa: $rsp 48 +
STACK CFI 390b .cfa: $rsp 256 +
STACK CFI 39a7 .cfa: $rsp 48 +
STACK CFI 39ab .cfa: $rsp 40 +
STACK CFI 39ac .cfa: $rsp 32 +
STACK CFI 39ae .cfa: $rsp 24 +
STACK CFI 39b0 .cfa: $rsp 16 +
STACK CFI 39b2 .cfa: $rsp 8 +
STACK CFI 39b3 .cfa: $rsp 256 +
STACK CFI INIT 3c00 6f .cfa: $rsp 8 + .ra: .cfa -8 + ^
STACK CFI 3c01 $rbp: .cfa -16 + ^ .cfa: $rsp 16 +
STACK CFI 3c09 $rbx: .cfa -24 + ^ .cfa: $rsp 24 +
STACK CFI 3c14 .cfa: $rsp 32 +
STACK CFI 3c4d .cfa: $rsp 24 +
STACK CFI 3c4e .cfa: $rsp 16 +
STACK CFI 3c4f .cfa: $rsp 8 +
STACK CFI 3c50 .cfa: $rsp 32 +
STACK CFI INIT 3c70 2d7 .cfa: $rsp 8 + .ra: .cfa -8 + ^
STACK CFI 3c72 $r14: .cfa -16 + ^ .cfa: $rsp 16 +
STACK CFI 3c74 $r13: .cfa -24 + ^ .cfa: $rsp 24 +
STACK CFI 3c76 $r12: .cfa -32 + ^ .cfa: $rsp 32 +
STACK CFI 3c77 $rbp: .cfa -40 + ^ .cfa: $rsp 40 +
STACK CFI 3c78 $rbx: .cfa -48 + ^ .cfa: $rsp 48 +
STACK CFI 3c7f .cfa: $rsp 176 +
STACK CFI 3e09 .cfa: $rsp 48 +
STACK CFI 3e0a .cfa: $rsp 40 +
STACK CFI 3e0b .cfa: $rsp 32 +
STACK CFI 3e0d .cfa: $rsp 24 +
STACK CFI 3e0f .cfa: $rsp 16 +
STACK CFI 3e11 .cfa: $rsp 8 +
STACK CFI 3e12 .cfa: $rsp 176 +
STACK CFI INIT 3f50 86 .cfa: $rsp 8 + .ra: .cfa -8 + ^
STACK CFI 3f51 $rbp: .cfa -16 + ^ .cfa: $rsp 16 +
STACK CFI 3f55 $rbx: .cfa -24 + ^ .cfa: $rsp 24 +
STACK CFI 3f59 .cfa: $rsp 32 +
STACK CFI 3fb1 .cfa: $rsp 24 +
STACK CFI 3fb5 .cfa: $rsp 16 +
STACK CFI 3fb6 .cfa: $rsp 8 +
STACK CFI 3fb7 .cfa: $rsp 32 +
STACK CFI INIT 3fe0 34 .cfa: $rsp 8 + .ra: .cfa -8 + ^
STACK CFI 3fec $rbx: .cfa -16 + ^ .cfa: $rsp 16 +
STACK CFI 4013 .cfa: $rsp 8 +
STACK CFI INIT 1a30 29 .cfa: $rsp 8 + .ra: .cfa -8 + ^
STACK CFI 1a36 $rbx: .cfa -16 + ^ .cfa: $rsp 16 +
STACK CFI 1a58 .cfa: $rsp 8 +
STACK CFI INIT 4020 4d .cfa: $rsp 8 + .ra: .cfa -8 + ^
STACK CFI 4021 $rbp: .cfa -16 + ^ .cfa: $rsp 16 +
STACK CFI 4026 $rbx: .cfa -24 + ^ .cfa: $rsp 24 +
STACK CFI 402d .cfa: $rsp 32 +
STACK CFI 4040 .cfa: $rsp 24 +
STACK CFI 4044 .cfa: $rsp 16 +
STACK CFI 4045 .cfa: $rsp 8 +
STACK CFI 4050 .cfa: $rsp 32 +
STACK CFI INIT 1a5a 4a .cfa: $rsp 8 + .ra: .cfa -8 + ^
STACK CFI 1a5c $r13: .cfa -16 + ^ .cfa: $rsp 16 +
STACK CFI 1a64 $r12: .cfa -24 + ^ .cfa: $rsp 24 +
STACK CFI 1a6b $rbp: .cfa -32 + ^ .cfa: $rsp 32 +
STACK CFI 1a6c $rbx: .cfa -40 + ^ .cfa: $rsp 40 +
STACK CFI 1a6d .cfa: $rsp 48 +
STACK CFI 1a9d .cfa: $rsp 40 +
STACK CFI 1a9e .cfa: $rsp 32 +
STACK CFI 1a9f .cfa: $rsp 24 +
STACK CFI 1aa1 .cfa: $rsp 16 +
STACK CFI 1aa3 .cfa: $rsp 8 +
STACK CFI INIT 1aa4 20 .cfa: $rsp 8 + .ra: .cfa -8 + ^
STACK CFI 1aac .cfa: $rsp 16 +
STACK CFI INIT 1ac4 20 .cfa: $rsp 8 + .ra: .cfa -8 + ^
STACK CFI 1acc .cfa: $rsp 16 +
STACK CFI INIT 4070 1e .cfa: $rsp 8 + .ra: .cfa -8 + ^
STACK CFI 4089 .cfa: $rsp 16 +
STACK CFI INIT 1ae4 20 .cfa: $rsp 8 + .ra: .cfa -8 + ^
STACK CFI 1aec .cfa: $rsp 16 +
STACK CFI INIT 1b04 20 .cfa: $rsp 8 + .ra: .cfa -8 + ^
STACK CFI 1b0c .cfa: $rsp 16 +
STACK CFI INIT 8410 13f .cfa: $rsp 8 + .ra: .cfa -8 + ^
STACK CFI 8412 $r15: .cfa -16 + ^ .cfa: $rsp 16 +
STACK CFI 8414 $r14: .cfa -24 + ^ .cfa: $rsp 24 +
STACK CFI 8416 $r13: .cfa -32 + ^ .cfa: $rsp 32 +
STACK CFI 8418 $r12: .cfa -40 + ^ .cfa: $rsp 40 +
STACK CFI 8419 $rbp: .cfa -48 + ^ .cfa: $rsp 48 +
STACK CFI 841d $rbx: .cfa -56 + ^ .cfa: $rsp 56 +
STACK CFI 8421 .cfa: $rsp 64 +
STACK CFI 845f .cfa: $rsp 56 +
STACK CFI 8460 .cfa: $rsp 48 +
STACK CFI 8461 .cfa: $rsp 40 +
STACK CFI 8463 .cfa: $rsp 32 +
STACK CFI 8465 .cfa: $rsp 24 +
STACK CFI 8467 .cfa: $rsp 16 +
STACK CFI 8469 .cfa: $rsp 8 +
STACK CFI 8470 .cfa: $rsp 64 +
STACK CFI 84c1 .cfa: $rsp 56 +
STACK CFI 84c4 .cfa: $rsp 48 +
STACK CFI 84c5 .cfa: $rsp 40 +
STACK CFI 84c7 .cfa: $rsp 32 +
STACK CFI 84c9 .cfa: $rsp 24 +
STACK CFI 84cb .cfa: $rsp 16 +
STACK CFI 84cd .cfa: $rsp 8 +
STACK CFI 84d0 .cfa: $rsp 64 +
STACK CFI 851d .cfa: $rsp 56 +
STACK CFI 8523 .cfa: $rsp 48 +
STACK CFI 8524 .cfa: $rsp 40 +
STACK CFI 8526 .cfa: $rsp 32 +
STACK CFI 8528 .cfa: $rsp 24 +
STACK CFI 852a .cfa: $rsp 16 +
STACK CFI 852c .cfa: $rsp 8 +
STACK CFI 8530 .cfa: $rsp 64 +
STACK CFI 8544 .cfa: $rsp 56 +
STACK CFI 8545 .cfa: $rsp 48 +
STACK CFI 8546 .cfa: $rsp 40 +
STACK CFI 8548 .cfa: $rsp 32 +
STACK CFI 854a .cfa: $rsp 24 +
STACK CFI 854c .cfa: $rsp 16 +
STACK CFI 854e .cfa: $rsp 8 +
STACK CFI INIT 1b24 1b7 .cfa: $rsp 8 + .ra: .cfa -8 + ^
STACK CFI 1b26 $r15: .cfa -16 + ^ .cfa: $rsp 16 +
STACK CFI 1b2f $r14: .cfa -24 + ^ .cfa: $rsp 24 +
STACK CFI 1b37 $r13: .cfa -32 + ^ .cfa: $rsp 32 +
STACK CFI 1b39 $r12: .cfa -40 + ^ .cfa: $rsp 40 +
STACK CFI 1b3a $rbp: .cfa -48 + ^ .cfa: $rsp 48 +
STACK CFI 1b3b $rbx: .cfa -56 + ^ .cfa: $rsp 56 +
STACK CFI 1b3f .cfa: $rsp 112 +
STACK CFI 1cce .cfa: $rsp 56 +
STACK CFI 1cd1 .cfa: $rsp 48 +
STACK CFI 1cd2 .cfa: $rsp 40 +
STACK CFI 1cd4 .cfa: $rsp 32 +
STACK CFI 1cd6 .cfa: $rsp 24 +
STACK CFI 1cd8 .cfa: $rsp 16 +
STACK CFI 1cda .cfa: $rsp 8 +
STACK CFI INIT 1cdc 68 .cfa: $rsp 8 + .ra: .cfa -8 + ^
STACK CFI 1cde $r12: .cfa -16 + ^ .cfa: $rsp 16 +
STACK CFI 1ce2 $rbp: .cfa -24 + ^ .cfa: $rsp 24 +
STACK CFI 1ce3 $rbx: .cfa -32 + ^ .cfa: $rsp 32 +
STACK CFI 1ced .cfa: $rsp 304 +
STACK CFI 1d3f .cfa: $rsp 32 +
STACK CFI 1d40 .cfa: $rsp 24 +
STACK CFI 1d41 .cfa: $rsp 16 +
STACK CFI 1d43 .cfa: $rsp 8 +
STACK CFI INIT 8550 249 .cfa: $rsp 8 + .ra: .cfa -8 + ^
STACK CFI 8552 $r15: .cfa -16 + ^ .cfa: $rsp 16 +
STACK CFI 8554 $r14: .cfa -24 + ^ .cfa: $rsp 24 +
STACK CFI 855a $r13: .cfa -32 + ^ .cfa: $rsp 32 +
STACK CFI 855c $r12: .cfa -40 + ^ .cfa: $rsp 40 +
STACK CFI 855d $rbp: .cfa -48 + ^ .cfa: $rsp 48 +
STACK CFI 8561 $rbx: .cfa -56 + ^ .cfa: $rsp 56 +
STACK CFI 8568 .cfa: $rsp 64 +
STACK CFI 85ef .cfa: $rsp 56 +
STACK CFI 85f2 .cfa: $rsp 48 +
STACK CFI 85f3 .cfa: $rsp 40 +
STACK CFI 85f5 .cfa: $rsp 32 +
STACK CFI 85f7 .cfa: $rsp 24 +
STACK CFI 85f9 .cfa: $rsp 16 +
STACK CFI 85fb .cfa: $rsp 8 +
STACK CFI 8600 .cfa: $rsp 64 +
STACK CFI 86c6 .cfa: $rsp 56 +
STACK CFI 86c7 .cfa: $rsp 48 +
STACK CFI 86c8 .cfa: $rsp 40 +
STACK CFI 86ca .cfa: $rsp 32 +
STACK CFI 86cc .cfa: $rsp 24 +
STACK CFI 86ce .cfa: $rsp 16 +
STACK CFI 86d5 .cfa: $rsp 8 +
STACK CFI 86e0 .cfa: $rsp 64 +
STACK CFI INIT 87a0 22 .cfa: $rsp 8 + .ra: .cfa -8 + ^
STACK CFI INIT 87d0 22 .cfa: $rsp 8 + .ra: .cfa -8 + ^
STACK CFI INIT 8800 22 .cfa: $rsp 8 + .ra: .cfa -8 + ^
STACK CFI INIT 8830 22 .cfa: $rsp 8 + .ra: .cfa -8 + ^
STACK CFI INIT 8860 22 .cfa: $rsp 8 + .ra: .cfa -8 + ^
STACK CFI INIT 8890 307 .cfa: $rsp 8 + .ra: .cfa -8 + ^
STACK CFI 8892 $r15: .cfa -16 + ^ .cfa: $rsp 16 +
STACK CFI 8894 $r14: .cfa -24 + ^ .cfa: $rsp 24 +
STACK CFI 8899 $r13: .cfa -32 + ^ .cfa: $rsp 32 +
STACK CFI 889b $r12: .cfa -40 + ^ .cfa: $rsp 40 +
STACK CFI 889c $rbp: .cfa -48 + ^ .cfa: $rsp 48 +
STACK CFI 88a0 $rbx: .cfa -56 + ^ .cfa: $rsp 56 +
STACK CFI 88a7 .cfa: $rsp 96 +
STACK CFI 8905 .cfa: $rsp 56 +
STACK CFI 8906 .cfa: $rsp 48 +
STACK CFI 8907 .cfa: $rsp 40 +
STACK CFI 8909 .cfa: $rsp 32 +
STACK CFI 890b .cfa: $rsp 24 +
STACK CFI 890d .cfa: $rsp 16 +
STACK CFI 890f .cfa: $rsp 8 +
STACK CFI 8910 .cfa: $rsp 96 +
STACK CFI INIT 4090 15c9 .cfa: $rsp 8 + .ra: .cfa -8 + ^
STACK CFI 4092 $r15: .cfa -16 + ^ .cfa: $rsp 16 +
STACK CFI 4094 $r14: .cfa -24 + ^ .cfa: $rsp 24 +
STACK CFI 4096 $r13: .cfa -32 + ^ .cfa: $rsp 32 +
STACK CFI 4098 $r12: .cfa -40 + ^ .cfa: $rsp 40 +
STACK CFI 4099 $rbp: .cfa -48 + ^ .cfa: $rsp 48 +
STACK CFI 409a $rbx: .cfa -56 + ^ .cfa: $rsp 56 +
STACK CFI 40a4 .cfa: $rsp 2416 +
STACK CFI 433f .cfa: $rsp 56 +
STACK CFI 4340 .cfa: $rsp 48 +
STACK CFI 4341 .cfa: $rsp 40 +
STACK CFI 4343 .cfa: $rsp 32 +
STACK CFI 4345 .cfa: $rsp 24 +
STACK CFI 4347 .cfa: $rsp 16 +
STACK CFI 4349 .cfa: $rsp 8 +
STACK CFI 4350 .cfa: $rsp 2416 +
STACK CFI INIT 8ba0 3c4 .cfa: $rsp 8 + .ra: .cfa -8 + ^
STACK CFI 8ba2 $r15: .cfa -16 + ^ .cfa: $rsp 16 +
STACK CFI 8ba4 $r14: .cfa -24 + ^ .cfa: $rsp 24 +
STACK CFI 8ba6 $r13: .cfa -32 + ^ .cfa: $rsp 32 +
STACK CFI 8ba8 $r12: .cfa -40 + ^ .cfa: $rsp 40 +
STACK CFI 8ba9 $rbp: .cfa -48 + ^ .cfa: $rsp 48 +
STACK CFI 8bad $rbx: .cfa -56 + ^ .cfa: $rsp 56 +
STACK CFI 8bb1 .cfa: $rsp 96 +
STACK CFI 8dc8 .cfa: $rsp 56 +
STACK CFI 8dc9 .cfa: $rsp 48 +
STACK CFI 8dca .cfa: $rsp 40 +
STACK CFI 8dcc .cfa: $rsp 32 +
STACK CFI 8dce .cfa: $rsp 24 +
STACK CFI 8dd0 .cfa: $rsp 16 +
STACK CFI 8dd2 .cfa: $rsp 8 +
STACK CFI 8dd8 .cfa: $rsp 96 +
STACK CFI 8e49 .cfa: $rsp 56 +
STACK CFI 8e51 .cfa: $rsp 48 +
STACK CFI 8e52 .cfa: $rsp 40 +
STACK CFI 8e54 .cfa: $rsp 32 +
STACK CFI 8e56 .cfa: $rsp 24 +
STACK CFI 8e58 .cfa: $rsp 16 +
STACK CFI 8e5a .cfa: $rsp 8 +
STACK CFI 8e60 .cfa: $rsp 96 +
STACK CFI INIT 5660 1fb2 .cfa: $rsp 8 + .ra: .cfa -8 + ^
STACK CFI 5662 $r15: .cfa -16 + ^ .cfa: $rsp 16 +
STACK CFI 566d $r14: .cfa -24 + ^ .cfa: $rsp 24 +
STACK CFI 566f $r13: .cfa -32 + ^ .cfa: $rsp 32 +
STACK CFI 5674 $r12: .cfa -40 + ^ .cfa: $rsp 40 +
STACK CFI 5675 $rbp: .cfa -48 + ^ .cfa: $rsp 48 +
STACK CFI 5676 $rbx: .cfa -56 + ^ .cfa: $rsp 56 +
STACK CFI 567d .cfa: $rsp 3904 +
STACK CFI 57e9 .cfa: $rsp 56 +
STACK CFI 57ea .cfa: $rsp 48 +
STACK CFI 57eb .cfa: $rsp 40 +
STACK CFI 57ed .cfa: $rsp 32 +
STACK CFI 57ef .cfa: $rsp 24 +
STACK CFI 57f1 .cfa: $rsp 16 +
STACK CFI 57f3 .cfa: $rsp 8 +
STACK CFI 57f8 .cfa: $rsp 3904 +
STACK CFI INIT 7620 3e0 .cfa: $rsp 8 + .ra: .cfa -8 + ^
STACK CFI 7622 $r15: .cfa -16 + ^ .cfa: $rsp 16 +
STACK CFI 7627 $r14: .cfa -24 + ^ .cfa: $rsp 24 +
STACK CFI 762e $r13: .cfa -32 + ^ .cfa: $rsp 32 +
STACK CFI 7633 $r12: .cfa -40 + ^ .cfa: $rsp 40 +
STACK CFI 7637 $rbp: .cfa -48 + ^ .cfa: $rsp 48 +
STACK CFI 7638 $rbx: .cfa -56 + ^ .cfa: $rsp 56 +
STACK CFI 763f .cfa: $rsp 384 +
STACK CFI 7689 .cfa: $rsp 56 +
STACK CFI 768c .cfa: $rsp 48 +
STACK CFI 768d .cfa: $rsp 40 +
STACK CFI 768f .cfa: $rsp 32 +
STACK CFI 7691 .cfa: $rsp 24 +
STACK CFI 7693 .cfa: $rsp 16 +
STACK CFI 7695 .cfa: $rsp 8 +
STACK CFI 76a0 .cfa: $rsp 384 +
STACK CFI INIT 7a00 e1 .cfa: $rsp 8 + .ra: .cfa -8 + ^
STACK CFI 7a02 $r13: .cfa -16 + ^ .cfa: $rsp 16 +
STACK CFI 7a18 $r12: .cfa -24 + ^ .cfa: $rsp 24 +
STACK CFI 7a19 $rbp: .cfa -32 + ^ .cfa: $rsp 32 +
STACK CFI 7a1a $rbx: .cfa -40 + ^ .cfa: $rsp 40 +
STACK CFI 7a1e .cfa: $rsp 96 +
STACK CFI 7a94 .cfa: $rsp 40 +
STACK CFI 7a98 .cfa: $rsp 32 +
STACK CFI 7a99 .cfa: $rsp 24 +
STACK CFI 7a9b .cfa: $rsp 16 +
STACK CFI 7a9d .cfa: $rsp 8 +
STACK CFI 7a9e .cfa: $rsp 96 +
STACK CFI INIT 7af0 e1 .cfa: $rsp 8 + .ra: .cfa -8 + ^
STACK CFI 7af2 $r13: .cfa -16 + ^ .cfa: $rsp 16 +
STACK CFI 7b05 $r12: .cfa -24 + ^ .cfa: $rsp 24 +
STACK CFI 7b08 $rbp: .cfa -32 + ^ .cfa: $rsp 32 +
STACK CFI 7b09 $rbx: .cfa -40 + ^ .cfa: $rsp 40 +
STACK CFI 7b0d .cfa: $rsp 96 +
STACK CFI 7b84 .cfa: $rsp 40 +
STACK CFI 7b88 .cfa: $rsp 32 +
STACK CFI 7b89 .cfa: $rsp 24 +
STACK CFI 7b8b .cfa: $rsp 16 +
STACK CFI 7b8d .cfa: $rsp 8 +
STACK CFI 7b8e .cfa: $rsp 96 +
STACK CFI INIT 7be0 2b .cfa: $rsp 8 + .ra: .cfa -8 + ^
STACK CFI 7be4 .cfa: $rsp 32 +
STACK CFI 7c0a .cfa: $rsp 8 +
STACK CFI INIT 7c10 2a .cfa: $rsp 8 + .ra: .cfa -8 + ^
STACK CFI 7c14 .cfa: $rsp 32 +
STACK CFI 7c39 .cfa: $rsp 8 +
STACK CFI INIT 7c40 2c .cfa: $rsp 8 + .ra: .cfa -8 + ^
STACK CFI 7c44 .cfa: $rsp 32 +
STACK CFI 7c6b .cfa: $rsp 8 +
STACK CFI INIT 7c70 2b .cfa: $rsp 8 + .ra: .cfa -8 + ^
STACK CFI 7c74 .cfa: $rsp 32 +
STACK CFI 7c9a .cfa: $rsp 8 +
STACK CFI INIT 7ca0 452 .cfa: $rsp 8 + .ra: .cfa -8 + ^
STACK CFI 7ca2 $r15: .cfa -16 + ^ .cfa: $rsp 16 +
STACK CFI 7ca4 $r14: .cfa -24 + ^ .cfa: $rsp 24 +
STACK CFI 7ca9 $r13: .cfa -32 + ^ .cfa: $rsp 32 +
STACK CFI 7cab $r12: .cfa -40 + ^ .cfa: $rsp 40 +
STACK CFI 7cac $rbp: .cfa -48 + ^ .cfa: $rsp 48 +
STACK CFI 7cad $rbx: .cfa -56 + ^ .cfa: $rsp 56 +
STACK CFI 7cb6 .cfa: $rsp 432 +
STACK CFI 7ec5 .cfa: $rsp 56 +
STACK CFI 7ec8 .cfa: $rsp 48 +
STACK CFI 7ec9 .cfa: $rsp 40 +
STACK CFI 7ecb .cfa: $rsp 32 +
STACK CFI 7ecd .cfa: $rsp 24 +
STACK CFI 7ecf .cfa: $rsp 16 +
STACK CFI 7ed1 .cfa: $rsp 8 +
STACK CFI 7ed8 .cfa: $rsp 432 +
STACK CFI INIT 8100 302 .cfa: $rsp 8 + .ra: .cfa -8 + ^
STACK CFI 8102 $r15: .cfa -16 + ^ .cfa: $rsp 16 +
STACK CFI 8107 $r14: .cfa -24 + ^ .cfa: $rsp 24 +
STACK CFI 8109 $r13: .cfa -32 + ^ .cfa: $rsp 32 +
STACK CFI 810b $r12: .cfa -40 + ^ .cfa: $rsp 40 +
STACK CFI 810f $rbp: .cfa -48 + ^ .cfa: $rsp 48 +
STACK CFI 8110 $rbx: .cfa -56 + ^ .cfa: $rsp 56 +
STACK CFI 8117 .cfa: $rsp 208 +
STACK CFI 8266 .cfa: $rsp 56 +
STACK CFI 8269 .cfa: $rsp 48 +
STACK CFI 826a .cfa: $rsp 40 +
STACK CFI 826c .cfa: $rsp 32 +
STACK CFI 826e .cfa: $rsp 24 +
STACK CFI 8270 .cfa: $rsp 16 +
STACK CFI 8272 .cfa: $rsp 8 +
STACK CFI 8278 .cfa: $rsp 208 +
STACK CFI INIT 1d44 20 .cfa: $rsp 8 + .ra: .cfa -8 + ^
STACK CFI 1d4c .cfa: $rsp 16 +
STACK CFI INIT 1d64 20 .cfa: $rsp 8 + .ra: .cfa -8 + ^
STACK CFI 1d6c .cfa: $rsp 16 +
STACK CFI INIT 8f70 1a .cfa: $rsp 8 + .ra: .cfa -8 + ^
STACK CFI INIT 8f90 78 .cfa: $rsp 8 + .ra: .cfa -8 + ^
STACK CFI 8f92 $r12: .cfa -16 + ^ .cfa: $rsp 16 +
STACK CFI 8f96 $rbp: .cfa -24 + ^ .cfa: $rsp 24 +
STACK CFI 8f97 $rbx: .cfa -32 + ^ .cfa: $rsp 32 +
STACK CFI 8fcf .cfa: $rsp 24 +
STACK CFI 8fd0 .cfa: $rsp 16 +
STACK CFI 8fd2 .cfa: $rsp 8 +
STACK CFI 8fd8 .cfa: $rsp 32 +
STACK CFI 8fe5 .cfa: $rsp 24 +
STACK CFI 8fe6 .cfa: $rsp 16 +
STACK CFI 8fe8 .cfa: $rsp 8 +
STACK CFI 8fe9 .cfa: $rsp 32 +
STACK CFI INIT 9010 2c .cfa: $rsp 8 + .ra: .cfa -8 + ^
STACK CFI 9024 .cfa: $rsp 16 +
STACK CFI INIT 9040 69 .cfa: $rsp 8 + .ra: .cfa -8 + ^
STACK CFI 9041 $rbp: .cfa -16 + ^ .cfa: $rsp 16 +
STACK CFI 9047 $rbx: .cfa -24 + ^ .cfa: $rsp 24 +
STACK CFI 904e .cfa: $rsp 32 +
STACK CFI 9088 .cfa: $rsp 24 +
STACK CFI 9089 .cfa: $rsp 16 +
STACK CFI 908a .cfa: $rsp 8 +
STACK CFI 9090 .cfa: $rsp 32 +
STACK CFI 90a4 .cfa: $rsp 24 +
STACK CFI 90a7 .cfa: $rsp 16 +
STACK CFI 90a8 .cfa: $rsp 8 +
STACK CFI INIT 90b0 15 .cfa: $rsp 8 + .ra: .cfa -8 + ^
STACK CFI INIT 90d0 b6 .cfa: $rsp 8 + .ra: .cfa -8 + ^
STACK CFI 90d2 $r13: .cfa -16 + ^ .cfa: $rsp 16 +
STACK CFI 90d4 $r12: .cfa -24 + ^ .cfa: $rsp 24 +
STACK CFI 90d5 $rbp: .cfa -32 + ^ .cfa: $rsp 32 +
STACK CFI 90d6 $rbx: .cfa -40 + ^ .cfa: $rsp 40 +
STACK CFI 90da .cfa: $rsp 48 +
STACK CFI 910d .cfa: $rsp 40 +
STACK CFI 910e .cfa: $rsp 32 +
STACK CFI 910f .cfa: $rsp 24 +
STACK CFI 9111 .cfa: $rsp 16 +
STACK CFI 9113 .cfa: $rsp 8 +
STACK CFI 9118 .cfa: $rsp 48 +
STACK CFI INIT 9190 ff .cfa: $rsp 8 + .ra: .cfa -8 + ^
STACK CFI 9191 $rbp: .cfa -16 + ^ .cfa: $rsp 16 +
STACK CFI 9195 $rbx: .cfa -24 + ^ .cfa: $rsp 24 +
STACK CFI 9199 .cfa: $rsp 32 +
STACK CFI 921b .cfa: $rsp 24 +
STACK CFI 921c .cfa: $rsp 16 +
STACK CFI 921d .cfa: $rsp 8 +
STACK CFI 9220 .cfa: $rsp 32 +
STACK CFI 922d .cfa: $rsp 24 +
STACK CFI 9230 .cfa: $rsp 16 +
STACK CFI 9231 .cfa: $rsp 8 +
STACK CFI 9232 .cfa: $rsp 32 +
STACK CFI INIT 9290 b4 .cfa: $rsp 8 + .ra: .cfa -8 + ^
STACK CFI 9292 $r15: .cfa -16 + ^ .cfa: $rsp 16 +
STACK CFI 9294 $r14: .cfa -24 + ^ .cfa: $rsp 24 +
STACK CFI 9296 $r13: .cfa -32 + ^ .cfa: $rsp 32 +
STACK CFI 9298 $r12: .cfa -40 + ^ .cfa: $rsp 40 +
STACK CFI 9299 $rbp: .cfa -48 + ^ .cfa: $rsp 48 +
STACK CFI 929a $rbx: .cfa -56 + ^ .cfa: $rsp 56 +
STACK CFI 92a0 .cfa: $rsp 80 +
STACK CFI 932d .cfa: $rsp 56 +
STACK CFI 932e .cfa: $rsp 48 +
STACK CFI 932f .cfa: $rsp 40 +
STACK CFI 9331 .cfa: $rsp 32 +
STACK CFI 9333 .cfa: $rsp 24 +
STACK CFI 9335 .cfa: $rsp 16 +
STACK CFI 9337 .cfa: $rsp 8 +
STACK CFI 9338 .cfa: $rsp 80 +
STACK CFI INIT 9350 b5 .cfa: $rsp 8 + .ra: .cfa -8 + ^
STACK CFI 9352 $r15: .cfa -16 + ^ .cfa: $rsp 16 +
STACK CFI 9354 $r14: .cfa -24 + ^ .cfa: $rsp 24 +
STACK CFI 9356 $r13: .cfa -32 + ^ .cfa: $rsp 32 +
STACK CFI 9358 $r12: .cfa -40 + ^ .cfa: $rsp 40 +
STACK CFI 9359 $rbp: .cfa -48 + ^ .cfa: $rsp 48 +
STACK CFI 935a $rbx: .cfa -56 + ^ .cfa: $rsp 56 +
STACK CFI 9360 .cfa: $rsp 80 +
STACK CFI 93ee .cfa: $rsp 56 +
STACK CFI 93ef .cfa: $rsp 48 +
STACK CFI 93f0 .cfa: $rsp 40 +
STACK CFI 93f2 .cfa: $rsp 32 +
STACK CFI 93f4 .cfa: $rsp 24 +
STACK CFI 93f6 .cfa: $rsp 16 +
STACK CFI 93f8 .cfa: $rsp 8 +
STACK CFI 93f9 .cfa: $rsp 80 +
STACK CFI INIT 9410 41 .cfa: $rsp 8 + .ra: .cfa -8 + ^
STACK CFI 9411 $rbx: .cfa -16 + ^ .cfa: $rsp 16 +
STACK CFI 9431 .cfa: $rsp 8 +
STACK CFI 9432 .cfa: $rsp 16 +
STACK CFI INIT 9460 88 .cfa: $rsp 8 + .ra: .cfa -8 + ^
STACK CFI 9464 .cfa: $rsp 16 +
STACK CFI 9487 .cfa: $rsp 8 +
STACK CFI 948c .cfa: $rsp 16 +
STACK CFI INIT 94f0 c1 .cfa: $rsp 8 + .ra: .cfa -8 + ^
STACK CFI 94f2 $r12: .cfa -16 + ^ .cfa: $rsp 16 +
STACK CFI 94f3 $rbp: .cfa -24 + ^ .cfa: $rsp 24 +
STACK CFI 94f7 $rbx: .cfa -32 + ^ .cfa: $rsp 32 +
STACK CFI 94fb .cfa: $rsp 64 +
STACK CFI 9533 .cfa: $rsp 32 +
STACK CFI 9536 .cfa: $rsp 24 +
STACK CFI 9537 .cfa: $rsp 16 +
STACK CFI 9539 .cfa: $rsp 8 +
STACK CFI 9540 .cfa: $rsp 64 +
STACK CFI 956e .cfa: $rsp 32 +
STACK CFI 956f .cfa: $rsp 24 +
STACK CFI 9570 .cfa: $rsp 16 +
STACK CFI 9572 .cfa: $rsp 8 +
STACK CFI 9573 .cfa: $rsp 64 +
STACK CFI INIT 95e0 22 .cfa: $rsp 8 + .ra: .cfa -8 + ^
STACK CFI INIT 9610 1d9 .cfa: $rsp 8 + .ra: .cfa -8 + ^
STACK CFI 9612 $r15: .cfa -16 + ^ .cfa: $rsp 16 +
STACK CFI 9614 $r14: .cfa -24 + ^ .cfa: $rsp 24 +
STACK CFI 9616 $r13: .cfa -32 + ^ .cfa: $rsp 32 +
STACK CFI 9618 $r12: .cfa -40 + ^ .cfa: $rsp 40 +
STACK CFI 9619 $rbp: .cfa -48 + ^ .cfa: $rsp 48 +
STACK CFI 961d $rbx: .cfa -56 + ^ .cfa: $rsp 56 +
STACK CFI 9621 .cfa: $rsp 128 +
STACK CFI 9708 .cfa: $rsp 56 +
STACK CFI 970b .cfa: $rsp 48 +
STACK CFI 970c .cfa: $rsp 40 +
STACK CFI 970e .cfa: $rsp 32 +
STACK CFI 9710 .cfa: $rsp 24 +
STACK CFI 9712 .cfa: $rsp 16 +
STACK CFI 9714 .cfa: $rsp 8 +
STACK CFI 9718 .cfa: $rsp 128 +
STACK CFI INIT 95c0 5 .cfa: $rsp 8 + .ra: .cfa -8 + ^
STACK CFI INIT 97f0 1d7 .cfa: $rsp 8 + .ra: .cfa -8 + ^
STACK CFI 97f2 $r15: .cfa -16 + ^ .cfa: $rsp 16 +
STACK CFI 97f4 $r14: .cfa -24 + ^ .cfa: $rsp 24 +
STACK CFI 97f6 $r13: .cfa -32 + ^ .cfa: $rsp 32 +
STACK CFI 97f8 $r12: .cfa -40 + ^ .cfa: $rsp 40 +
STACK CFI 97f9 $rbp: .cfa -48 + ^ .cfa: $rsp 48 +
STACK CFI 97fd $rbx: .cfa -56 + ^ .cfa: $rsp 56 +
STACK CFI 9801 .cfa: $rsp 128 +
STACK CFI 98e7 .cfa: $rsp 56 +
STACK CFI 98ea .cfa: $rsp 48 +
STACK CFI 98eb .cfa: $rsp 40 +
STACK CFI 98ed .cfa: $rsp 32 +
STACK CFI 98ef .cfa: $rsp 24 +
STACK CFI 98f1 .cfa: $rsp 16 +
STACK CFI 98f3 .cfa: $rsp 8 +
STACK CFI 98f8 .cfa: $rsp 128 +
STACK CFI INIT 95d0 5 .cfa: $rsp 8 + .ra: .cfa -8 + ^
STACK CFI INIT 99d0 91 .cfa: $rsp 8 + .ra: .cfa -8 + ^
STACK CFI 99d2 $r15: .cfa -16 + ^ .cfa: $rsp 16 +
STACK CFI 99db $r14: .cfa -24 + ^ .cfa: $rsp 24 +
STACK CFI 99e4 $r13: .cfa -32 + ^ .cfa: $rsp 32 +
STACK CFI 99e6 $r12: .cfa -40 + ^ .cfa: $rsp 40 +
STACK CFI 99e7 $rbp: .cfa -48 + ^ .cfa: $rsp 48 +
STACK CFI 99eb $rbx: .cfa -56 + ^ .cfa: $rsp 56 +
STACK CFI 99f3 .cfa: $rsp 80 +
STACK CFI 9a3c .cfa: $rsp 56 +
STACK CFI 9a3d .cfa: $rsp 48 +
STACK CFI 9a40 .cfa: $rsp 40 +
STACK CFI 9a42 .cfa: $rsp 32 +
STACK CFI 9a44 .cfa: $rsp 24 +
STACK CFI 9a46 .cfa: $rsp 16 +
STACK CFI 9a48 .cfa: $rsp 8 +
STACK CFI 9a50 .cfa: $rsp 80 +
STACK CFI 9a54 .cfa: $rsp 56 +
STACK CFI 9a57 .cfa: $rsp 48 +
STACK CFI 9a58 .cfa: $rsp 40 +
STACK CFI 9a5a .cfa: $rsp 32 +
STACK CFI 9a5c .cfa: $rsp 24 +
STACK CFI 9a5e .cfa: $rsp 16 +
STACK CFI 9a60 .cfa: $rsp 8 +
STACK CFI INIT 9a70 56 .cfa: $rsp 8 + .ra: .cfa -8 + ^
STACK CFI 9a71 $rbx: .cfa -16 + ^ .cfa: $rsp 16 +
STACK CFI 9a7d .cfa: $rsp 48 +
STACK CFI 9ac4 .cfa: $rsp 16 +
STACK CFI 9ac5 .cfa: $rsp 8 +
STACK CFI INIT 9ad0 15b .cfa: $rsp 8 + .ra: .cfa -8 + ^
STACK CFI 9ad2 $r14: .cfa -16 + ^ .cfa: $rsp 16 +
STACK CFI 9ad4 $r13: .cfa -24 + ^ .cfa: $rsp 24 +
STACK CFI 9ad6 $r12: .cfa -32 + ^ .cfa: $rsp 32 +
STACK CFI 9ada $rbp: .cfa -40 + ^ .cfa: $rsp 40 +
STACK CFI 9ade $rbx: .cfa -48 + ^ .cfa: $rsp 48 +
STACK CFI 9ae2 .cfa: $rsp 80 +
STACK CFI 9bc9 .cfa: $rsp 48 +
STACK CFI 9bcd .cfa: $rsp 40 +
STACK CFI 9bce .cfa: $rsp 32 +
STACK CFI 9bd0 .cfa: $rsp 24 +
STACK CFI 9bd2 .cfa: $rsp 16 +
STACK CFI 9bd4 .cfa: $rsp 8 +
STACK CFI 9bd8 .cfa: $rsp 80 +
STACK CFI INIT 9e10 283 .cfa: $rsp 8 + .ra: .cfa -8 + ^
STACK CFI 9e12 $r15: .cfa -16 + ^ .cfa: $rsp 16 +
STACK CFI 9e14 $r14: .cfa -24 + ^ .cfa: $rsp 24 +
STACK CFI 9e16 $r13: .cfa -32 + ^ .cfa: $rsp 32 +
STACK CFI 9e18 $r12: .cfa -40 + ^ .cfa: $rsp 40 +
STACK CFI 9e1c $rbp: .cfa -48 + ^ .cfa: $rsp 48 +
STACK CFI 9e1d $rbx: .cfa -56 + ^ .cfa: $rsp 56 +
STACK CFI 9e21 .cfa: $rsp 80 +
STACK CFI 9eb8 .cfa: $rsp 56 +
STACK CFI 9eb9 .cfa: $rsp 48 +
STACK CFI 9eba .cfa: $rsp 40 +
STACK CFI 9ebc .cfa: $rsp 32 +
STACK CFI 9ebe .cfa: $rsp 24 +
STACK CFI 9ec0 .cfa: $rsp 16 +
STACK CFI 9ec2 .cfa: $rsp 8 +
STACK CFI 9ec8 .cfa: $rsp 80 +
STACK CFI 9fb1 .cfa: $rsp 56 +
STACK CFI 9fb2 .cfa: $rsp 48 +
STACK CFI 9fb3 .cfa: $rsp 40 +
STACK CFI 9fb5 .cfa: $rsp 32 +
STACK CFI 9fb7 .cfa: $rsp 24 +
STACK CFI 9fb9 .cfa: $rsp 16 +
STACK CFI 9fbb .cfa: $rsp 8 +
STACK CFI 9fc0 .cfa: $rsp 80 +
STACK CFI a050 .cfa: $rsp 56 +
STACK CFI a051 .cfa: $rsp 48 +
STACK CFI a052 .cfa: $rsp 40 +
STACK CFI a054 .cfa: $rsp 32 +
STACK CFI a056 .cfa: $rsp 24 +
STACK CFI a058 .cfa: $rsp 16 +
STACK CFI a05a .cfa: $rsp 8 +
STACK CFI a060 .cfa: $rsp 80 +
STACK CFI INIT 9c30 e3 .cfa: $rsp 8 + .ra: .cfa -8 + ^
STACK CFI 9c32 $r12: .cfa -16 + ^ .cfa: $rsp 16 +
STACK CFI 9c33 $rbp: .cfa -24 + ^ .cfa: $rsp 24 +
STACK CFI 9c37 $rbx: .cfa -32 + ^ .cfa: $rsp 32 +
STACK CFI 9c3e .cfa: $rsp 64 +
STACK CFI 9cda .cfa: $rsp 32 +
STACK CFI 9cdb .cfa: $rsp 24 +
STACK CFI 9cdc .cfa: $rsp 16 +
STACK CFI 9cde .cfa: $rsp 8 +
STACK CFI 9ce0 .cfa: $rsp 64 +
STACK CFI 9cf4 .cfa: $rsp 32 +
STACK CFI 9cf5 .cfa: $rsp 24 +
STACK CFI 9cf6 .cfa: $rsp 16 +
STACK CFI 9cf8 .cfa: $rsp 8 +
STACK CFI 9d00 .cfa: $rsp 64 +
STACK CFI INIT 9d20 e3 .cfa: $rsp 8 + .ra: .cfa -8 + ^
STACK CFI 9d22 $r12: .cfa -16 + ^ .cfa: $rsp 16 +
STACK CFI 9d23 $rbp: .cfa -24 + ^ .cfa: $rsp 24 +
STACK CFI 9d27 $rbx: .cfa -32 + ^ .cfa: $rsp 32 +
STACK CFI 9d2e .cfa: $rsp 64 +
STACK CFI 9dc8 .cfa: $rsp 32 +
STACK CFI 9dc9 .cfa: $rsp 24 +
STACK CFI 9dca .cfa: $rsp 16 +
STACK CFI 9dcc .cfa: $rsp 8 +
STACK CFI 9dd0 .cfa: $rsp 64 +
STACK CFI 9de4 .cfa: $rsp 32 +
STACK CFI 9de5 .cfa: $rsp 24 +
STACK CFI 9de6 .cfa: $rsp 16 +
STACK CFI 9de8 .cfa: $rsp 8 +
STACK CFI 9df0 .cfa: $rsp 64 +
STACK CFI INIT a1e0 16 .cfa: $rsp 8 + .ra: .cfa -8 + ^
STACK CFI a1e4 .cfa: $rsp 16 +
STACK CFI a1ef .cfa: $rsp 8 +
STACK CFI INIT a0a0 73 .cfa: $rsp 8 + .ra: .cfa -8 + ^
STACK CFI a0a1 $rbx: .cfa -16 + ^ .cfa: $rsp 16 +
STACK CFI a112 .cfa: $rsp 8 +
STACK CFI INIT a120 c0 .cfa: $rsp 8 + .ra: .cfa -8 + ^
STACK CFI a121 $rbx: .cfa -16 + ^ .cfa: $rsp 16 +
STACK CFI a125 .cfa: $rsp 48 +
STACK CFI a1bd .cfa: $rsp 16 +
STACK CFI a1c0 .cfa: $rsp 8 +
STACK CFI a1c1 .cfa: $rsp 48 +
STACK CFI INIT a200 1e .cfa: $rsp 8 + .ra: .cfa -8 + ^
STACK CFI INIT a220 33 .cfa: $rsp 8 + .ra: .cfa -8 + ^
STACK CFI INIT a260 56 .cfa: $rsp 8 + .ra: .cfa -8 + ^
STACK CFI INIT a2c0 4c .cfa: $rsp 8 + .ra: .cfa -8 + ^
STACK CFI INIT a310 36 .cfa: $rsp 8 + .ra: .cfa -8 + ^
STACK CFI INIT a350 3a .cfa: $rsp 8 + .ra: .cfa -8 + ^
STACK CFI INIT a390 2b .cfa: $rsp 8 + .ra: .cfa -8 + ^
STACK CFI INIT a3c0 26 .cfa: $rsp 8 + .ra: .cfa -8 + ^
STACK CFI INIT a3f0 2b .cfa: $rsp 8 + .ra: .cfa -8 + ^
STACK CFI INIT a420 64 .cfa: $rsp 8 + .ra: .cfa -8 + ^
STACK CFI INIT a490 3a .cfa: $rsp 8 + .ra: .cfa -8 + ^
STACK CFI INIT a4d0 1f .cfa: $rsp 8 + .ra: .cfa -8 + ^
STACK CFI INIT a4f0 38 .cfa: $rsp 8 + .ra: .cfa -8 + ^
STACK CFI INIT a530 45 .cfa: $rsp 8 + .ra: .cfa -8 + ^
STACK CFI a536 $rbx: .cfa -16 + ^ .cfa: $rsp 16 +
STACK CFI a553 $rbx: $rbx .cfa: $rsp 8 +
STACK CFI a558 $rbx: .cfa -16 + ^ .cfa: $rsp 16 +
STACK CFI a56c $rbx: $rbx .cfa: $rsp 8 +
STACK CFI a570 $rbx: .cfa -16 + ^ .cfa: $rsp 16 +
STACK CFI a574 $rbx: $rbx .cfa: $rsp 8 +
STACK CFI INIT a580 6c .cfa: $rsp 8 + .ra: .cfa -8 + ^
STACK CFI a584 .cfa: $rsp 32 +
STACK CFI a5de .cfa: $rsp 8 +
STACK CFI a5e0 .cfa: $rsp 32 +
STACK CFI INIT a870 f .cfa: $rsp 8 + .ra: .cfa -8 + ^
STACK CFI INIT a5f0 f .cfa: $rsp 8 + .ra: .cfa -8 + ^
STACK CFI INIT a880 13 .cfa: $rsp 8 + .ra: .cfa -8 + ^
STACK CFI INIT a600 13 .cfa: $rsp 8 + .ra: .cfa -8 + ^
STACK CFI INIT a620 212 .cfa: $rsp 8 + .ra: .cfa -8 + ^
STACK CFI a622 $r15: .cfa -16 + ^ .cfa: $rsp 16 +
STACK CFI a629 $r14: .cfa -24 + ^ .cfa: $rsp 24 +
STACK CFI a62b $r13: .cfa -32 + ^ .cfa: $rsp 32 +
STACK CFI a630 $r12: .cfa -40 + ^ .cfa: $rsp 40 +
STACK CFI a636 $rbp: .cfa -48 + ^ .cfa: $rsp 48 +
STACK CFI a642 $rbx: .cfa -56 + ^ .cfa: $rsp 56 +
STACK CFI a649 .cfa: $rsp 208 +
STACK CFI a7db .cfa: $rsp 56 +
STACK CFI a7dc .cfa: $rsp 48 +
STACK CFI a7dd .cfa: $rsp 40 +
STACK CFI a7df .cfa: $rsp 32 +
STACK CFI a7e1 .cfa: $rsp 24 +
STACK CFI a7e3 .cfa: $rsp 16 +
STACK CFI a7e5 .cfa: $rsp 8 +
STACK CFI a7f0 .cfa: $rsp 208 +
STACK CFI INIT a840 24 .cfa: $rsp 8 + .ra: .cfa -8 + ^
STACK CFI a843 $rbx: .cfa -16 + ^ .cfa: $rsp 16 +
STACK CFI a85f .cfa: $rsp 8 +
STACK CFI a860 .cfa: $rsp 16 +
STACK CFI a863 .cfa: $rsp 8 +
STACK CFI INIT 1d84 20 .cfa: $rsp 8 + .ra: .cfa -8 + ^
STACK CFI 1d8c .cfa: $rsp 16 +
STACK CFI INIT a8a0 69 .cfa: $rsp 8 + .ra: .cfa -8 + ^
STACK CFI a8a2 $r13: .cfa -16 + ^ .cfa: $rsp 16 +
STACK CFI a8aa $r12: .cfa -24 + ^ .cfa: $rsp 24 +
STACK CFI a8ae $rbp: .cfa -32 + ^ .cfa: $rsp 32 +
STACK CFI a8af $rbx: .cfa -40 + ^ .cfa: $rsp 40 +
STACK CFI a8b3 .cfa: $rsp 48 +
STACK CFI a902 .cfa: $rsp 40 +
STACK CFI a903 .cfa: $rsp 32 +
STACK CFI a904 .cfa: $rsp 24 +
STACK CFI a906 .cfa: $rsp 16 +
STACK CFI a908 .cfa: $rsp 8 +
STACK CFI INIT a910 12 .cfa: $rsp 8 + .ra: .cfa -8 + ^
STACK CFI a911 $rbx: .cfa -16 + ^ .cfa: $rsp 16 +
STACK CFI a91d .cfa: $rsp 8 +
STACK CFI INIT a930 1ec .cfa: $rsp 8 + .ra: .cfa -8 + ^
STACK CFI a932 $r15: .cfa -16 + ^ .cfa: $rsp 16 +
STACK CFI a934 $r14: .cfa -24 + ^ .cfa: $rsp 24 +
STACK CFI a940 $r13: .cfa -32 + ^ .cfa: $rsp 32 +
STACK CFI a94a $r12: .cfa -40 + ^ .cfa: $rsp 40 +
STACK CFI a94e $rbp: .cfa -48 + ^ .cfa: $rsp 48 +
STACK CFI a952 $rbx: .cfa -56 + ^ .cfa: $rsp 56 +
STACK CFI a95d .cfa: $rsp 400 +
STACK CFI a99d .cfa: $rsp 56 +
STACK CFI a99e .cfa: $rsp 48 +
STACK CFI a99f .cfa: $rsp 40 +
STACK CFI a9a1 .cfa: $rsp 32 +
STACK CFI a9a3 .cfa: $rsp 24 +
STACK CFI a9a5 .cfa: $rsp 16 +
STACK CFI a9a7 .cfa: $rsp 8 +
STACK CFI a9b0 .cfa: $rsp 400 +
STACK CFI INIT ab20 131 .cfa: $rsp 8 + .ra: .cfa -8 + ^
STACK CFI ab22 $r13: .cfa -16 + ^ .cfa: $rsp 16 +
STACK CFI ab2e $r12: .cfa -24 + ^ .cfa: $rsp 24 +
STACK CFI ab2f $rbp: .cfa -32 + ^ .cfa: $rsp 32 +
STACK CFI ab30 $rbx: .cfa -40 + ^ .cfa: $rsp 40 +
STACK CFI ab37 .cfa: $rsp 336 +
STACK CFI ac0a .cfa: $rsp 40 +
STACK CFI ac0b .cfa: $rsp 32 +
STACK CFI ac0c .cfa: $rsp 24 +
STACK CFI ac0e .cfa: $rsp 16 +
STACK CFI ac10 .cfa: $rsp 8 +
STACK CFI ac18 .cfa: $rsp 336 +
STACK CFI INIT ac60 32 .cfa: $rsp 8 + .ra: .cfa -8 + ^
STACK CFI ac61 $rbx: .cfa -16 + ^ .cfa: $rsp 16 +
STACK CFI ac70 .cfa: $rsp 8 +
STACK CFI ac78 .cfa: $rsp 16 +
STACK CFI ac8c .cfa: $rsp 8 +
STACK CFI INIT aca0 4b .cfa: $rsp 8 + .ra: .cfa -8 + ^
STACK CFI INIT acf0 73 .cfa: $rsp 8 + .ra: .cfa -8 + ^
STACK CFI acf2 $r14: .cfa -16 + ^ .cfa: $rsp 16 +
STACK CFI acf7 $r13: .cfa -24 + ^ .cfa: $rsp 24 +
STACK CFI acfc $r12: .cfa -32 + ^ .cfa: $rsp 32 +
STACK CFI ad00 $rbp: .cfa -40 + ^ .cfa: $rsp 40 +
STACK CFI ad04 $rbx: .cfa -48 + ^ .cfa: $rsp 48 +
STACK CFI ad4c .cfa: $rsp 40 +
STACK CFI ad4d .cfa: $rsp 32 +
STACK CFI ad4f .cfa: $rsp 24 +
STACK CFI ad51 .cfa: $rsp 16 +
STACK CFI ad53 .cfa: $rsp 8 +
STACK CFI ad58 .cfa: $rsp 48 +
STACK CFI ad59 .cfa: $rsp 40 +
STACK CFI ad5a .cfa: $rsp 32 +
STACK CFI ad5c .cfa: $rsp 24 +
STACK CFI ad5e .cfa: $rsp 16 +
STACK CFI ad62 .cfa: $rsp 8 +
STACK CFI INIT ad70 214 .cfa: $rsp 8 + .ra: .cfa -8 + ^
STACK CFI ad72 $r14: .cfa -16 + ^ .cfa: $rsp 16 +
STACK CFI ad74 $r13: .cfa -24 + ^ .cfa: $rsp 24 +
STACK CFI ad76 $r12: .cfa -32 + ^ .cfa: $rsp 32 +
STACK CFI ad77 $rbp: .cfa -40 + ^ .cfa: $rsp 40 +
STACK CFI ad7e $rbx: .cfa -48 + ^ .cfa: $rsp 48 +
STACK CFI ad88 .cfa: $rsp 864 +
STACK CFI adc8 .cfa: $rsp 48 +
STACK CFI adc9 .cfa: $rsp 40 +
STACK CFI adca .cfa: $rsp 32 +
STACK CFI adcc .cfa: $rsp 24 +
STACK CFI adce .cfa: $rsp 16 +
STACK CFI add0 .cfa: $rsp 8 +
STACK CFI add8 .cfa: $rsp 864 +
STACK CFI INIT af90 35a .cfa: $rsp 8 + .ra: .cfa -8 + ^
STACK CFI af92 $r15: .cfa -16 + ^ .cfa: $rsp 16 +
STACK CFI af94 $r14: .cfa -24 + ^ .cfa: $rsp 24 +
STACK CFI af99 $r13: .cfa -32 + ^ .cfa: $rsp 32 +
STACK CFI af9e $r12: .cfa -40 + ^ .cfa: $rsp 40 +
STACK CFI af9f $rbp: .cfa -48 + ^ .cfa: $rsp 48 +
STACK CFI afa3 $rbx: .cfa -56 + ^ .cfa: $rsp 56 +
STACK CFI afad .cfa: $rsp 384 +
STACK CFI b02d .cfa: $rsp 56 +
STACK CFI b02e .cfa: $rsp 48 +
STACK CFI b02f .cfa: $rsp 40 +
STACK CFI b031 .cfa: $rsp 32 +
STACK CFI b033 .cfa: $rsp 24 +
STACK CFI b035 .cfa: $rsp 16 +
STACK CFI b037 .cfa: $rsp 8 +
STACK CFI b040 .cfa: $rsp 384 +
STACK CFI INIT c000 2eb .cfa: $rsp 8 + .ra: .cfa -8 + ^
STACK CFI c002 $r15: .cfa -16 + ^ .cfa: $rsp 16 +
STACK CFI c004 $r14: .cfa -24 + ^ .cfa: $rsp 24 +
STACK CFI c009 $r13: .cfa -32 + ^ .cfa: $rsp 32 +
STACK CFI c00b $r12: .cfa -40 + ^ .cfa: $rsp 40 +
STACK CFI c00c $rbp: .cfa -48 + ^ .cfa: $rsp 48 +
STACK CFI c010 $rbx: .cfa -56 + ^ .cfa: $rsp 56 +
STACK CFI c017 .cfa: $rsp 96 +
STACK CFI c063 .cfa: $rsp 56 +
STACK CFI c064 .cfa: $rsp 48 +
STACK CFI c065 .cfa: $rsp 40 +
STACK CFI c067 .cfa: $rsp 32 +
STACK CFI c069 .cfa: $rsp 24 +
STACK CFI c06b .cfa: $rsp 16 +
STACK CFI c06d .cfa: $rsp 8 +
STACK CFI c070 .cfa: $rsp 96 +
STACK CFI INIT c2f0 42c .cfa: $rsp 8 + .ra: .cfa -8 + ^
STACK CFI c2f2 $r15: .cfa -16 + ^ .cfa: $rsp 16 +
STACK CFI c2f4 $r14: .cfa -24 + ^ .cfa: $rsp 24 +
STACK CFI c2f9 $r13: .cfa -32 + ^ .cfa: $rsp 32 +
STACK CFI c2fb $r12: .cfa -40 + ^ .cfa: $rsp 40 +
STACK CFI c2fc $rbp: .cfa -48 + ^ .cfa: $rsp 48 +
STACK CFI c2fd $rbx: .cfa -56 + ^ .cfa: $rsp 56 +
STACK CFI c301 .cfa: $rsp 96 +
STACK CFI c3a8 .cfa: $rsp 56 +
STACK CFI c3a9 .cfa: $rsp 48 +
STACK CFI c3aa .cfa: $rsp 40 +
STACK CFI c3ac .cfa: $rsp 32 +
STACK CFI c3ae .cfa: $rsp 24 +
STACK CFI c3b0 .cfa: $rsp 16 +
STACK CFI c3b2 .cfa: $rsp 8 +
STACK CFI c3b8 .cfa: $rsp 96 +
STACK CFI c430 .cfa: $rsp 56 +
STACK CFI c431 .cfa: $rsp 48 +
STACK CFI c432 .cfa: $rsp 40 +
STACK CFI c434 .cfa: $rsp 32 +
STACK CFI c436 .cfa: $rsp 24 +
STACK CFI c438 .cfa: $rsp 16 +
STACK CFI c43a .cfa: $rsp 8 +
STACK CFI c440 .cfa: $rsp 96 +
STACK CFI c5a8 .cfa: $rsp 56 +
STACK CFI c5a9 .cfa: $rsp 48 +
STACK CFI c5aa .cfa: $rsp 40 +
STACK CFI c5ac .cfa: $rsp 32 +
STACK CFI c5ae .cfa: $rsp 24 +
STACK CFI c5b0 .cfa: $rsp 16 +
STACK CFI c5b2 .cfa: $rsp 8 +
STACK CFI c5b8 .cfa: $rsp 96 +
STACK CFI INIT b2f0 4ca .cfa: $rsp 8 + .ra: .cfa -8 + ^
STACK CFI b2f2 $r15: .cfa -16 + ^ .cfa: $rsp 16 +
STACK CFI b2fb $r14: .cfa -24 + ^ .cfa: $rsp 24 +
STACK CFI b303 $r13: .cfa -32 + ^ .cfa: $rsp 32 +
STACK CFI b305 $r12: .cfa -40 + ^ .cfa: $rsp 40 +
STACK CFI b306 $rbp: .cfa -48 + ^ .cfa: $rsp 48 +
STACK CFI b307 $rbx: .cfa -56 + ^ .cfa: $rsp 56 +
STACK CFI b312 .cfa: $rsp 80 +
STACK CFI b520 .cfa: $rsp 56 +
STACK CFI b521 .cfa: $rsp 48 +
STACK CFI b522 .cfa: $rsp 40 +
STACK CFI b524 .cfa: $rsp 32 +
STACK CFI b526 .cfa: $rsp 24 +
STACK CFI b528 .cfa: $rsp 16 +
STACK CFI b52a .cfa: $rsp 8 +
STACK CFI b530 .cfa: $rsp 80 +
STACK CFI INIT c720 438 .cfa: $rsp 8 + .ra: .cfa -8 + ^
STACK CFI c722 $r15: .cfa -16 + ^ .cfa: $rsp 16 +
STACK CFI c727 $r14: .cfa -24 + ^ .cfa: $rsp 24 +
STACK CFI c729 $r13: .cfa -32 + ^ .cfa: $rsp 32 +
STACK CFI c72b $r12: .cfa -40 + ^ .cfa: $rsp 40 +
STACK CFI c72c $rbp: .cfa -48 + ^ .cfa: $rsp 48 +
STACK CFI c72d $rbx: .cfa -56 + ^ .cfa: $rsp 56 +
STACK CFI c731 .cfa: $rsp 96 +
STACK CFI c7f0 .cfa: $rsp 56 +
STACK CFI c7f1 .cfa: $rsp 48 +
STACK CFI c7f2 .cfa: $rsp 40 +
STACK CFI c7f4 .cfa: $rsp 32 +
STACK CFI c7f6 .cfa: $rsp 24 +
STACK CFI c7f8 .cfa: $rsp 16 +
STACK CFI c7fa .cfa: $rsp 8 +
STACK CFI c800 .cfa: $rsp 96 +
STACK CFI c870 .cfa: $rsp 56 +
STACK CFI c871 .cfa: $rsp 48 +
STACK CFI c872 .cfa: $rsp 40 +
STACK CFI c874 .cfa: $rsp 32 +
STACK CFI c876 .cfa: $rsp 24 +
STACK CFI c878 .cfa: $rsp 16 +
STACK CFI c87a .cfa: $rsp 8 +
STACK CFI c880 .cfa: $rsp 96 +
STACK CFI c9f0 .cfa: $rsp 56 +
STACK CFI c9f1 .cfa: $rsp 48 +
STACK CFI c9f2 .cfa: $rsp 40 +
STACK CFI c9f4 .cfa: $rsp 32 +
STACK CFI c9f6 .cfa: $rsp 24 +
STACK CFI c9f8 .cfa: $rsp 16 +
STACK CFI c9fa .cfa: $rsp 8 +
STACK CFI ca00 .cfa: $rsp 96 +
STACK CFI INIT b7c0 83d .cfa: $rsp 8 + .ra: .cfa -8 + ^
STACK CFI b7c2 $r15: .cfa -16 + ^ .cfa: $rsp 16 +
STACK CFI b7ce $r14: .cfa -24 + ^ .cfa: $rsp 24 +
STACK CFI b7d0 $r13: .cfa -32 + ^ .cfa: $rsp 32 +
STACK CFI b7d2 $r12: .cfa -40 + ^ .cfa: $rsp 40 +
STACK CFI b7d3 $rbp: .cfa -48 + ^ .cfa: $rsp 48 +
STACK CFI b7d4 $rbx: .cfa -56 + ^ .cfa: $rsp 56 +
STACK CFI b7db .cfa: $rsp 480 +
STACK CFI b980 .cfa: $rsp 56 +
STACK CFI b981 .cfa: $rsp 48 +
STACK CFI b982 .cfa: $rsp 40 +
STACK CFI b984 .cfa: $rsp 32 +
STACK CFI b986 .cfa: $rsp 24 +
STACK CFI b988 .cfa: $rsp 16 +
STACK CFI b98a .cfa: $rsp 8 +
STACK CFI b98b .cfa: $rsp 480 +
STACK CFI INIT cb60 3 .cfa: $rsp 8 + .ra: .cfa -8 + ^
STACK CFI INIT cb70 b7 .cfa: $rsp 8 + .ra: .cfa -8 + ^
STACK CFI cb72 $r15: .cfa -16 + ^ .cfa: $rsp 16 +
STACK CFI cb74 $r14: .cfa -24 + ^ .cfa: $rsp 24 +
STACK CFI cb76 $r13: .cfa -32 + ^ .cfa: $rsp 32 +
STACK CFI cb78 $r12: .cfa -40 + ^ .cfa: $rsp 40 +
STACK CFI cb79 $rbp: .cfa -48 + ^ .cfa: $rsp 48 +
STACK CFI cb7a $rbx: .cfa -56 + ^ .cfa: $rsp 56 +
STACK CFI cb81 .cfa: $rsp 96 +
STACK CFI cc1c .cfa: $rsp 56 +
STACK CFI cc1d .cfa: $rsp 48 +
STACK CFI cc1e .cfa: $rsp 40 +
STACK CFI cc20 .cfa: $rsp 32 +
STACK CFI cc22 .cfa: $rsp 24 +
STACK CFI cc24 .cfa: $rsp 16 +
STACK CFI cc26 .cfa: $rsp 8 +
STACK CFI INIT d8c0 13 .cfa: $rsp 8 + .ra: .cfa -8 + ^
STACK CFI INIT d8e0 20 .cfa: $rsp 8 + .ra: .cfa -8 + ^
STACK CFI d8e8 $rbx: .cfa -16 + ^ .cfa: $rsp 16 +
STACK CFI d8fb .cfa: $rsp 8 +
STACK CFI INIT cc30 c8 .cfa: $rsp 8 + .ra: .cfa -8 + ^
STACK CFI cc32 $r15: .cfa -16 + ^ .cfa: $rsp 16 +
STACK CFI cc34 $r14: .cfa -24 + ^ .cfa: $rsp 24 +
STACK CFI cc36 $r13: .cfa -32 + ^ .cfa: $rsp 32 +
STACK CFI cc38 $r12: .cfa -40 + ^ .cfa: $rsp 40 +
STACK CFI cc3c $rbp: .cfa -48 + ^ .cfa: $rsp 48 +
STACK CFI cc40 $rbx: .cfa -56 + ^ .cfa: $rsp 56 +
STACK CFI cc44 .cfa: $rsp 80 +
STACK CFI cc73 .cfa: $rsp 56 +
STACK CFI cc76 .cfa: $rsp 48 +
STACK CFI cc77 .cfa: $rsp 40 +
STACK CFI cc79 .cfa: $rsp 32 +
STACK CFI cc7b .cfa: $rsp 24 +
STACK CFI cc7d .cfa: $rsp 16 +
STACK CFI cc7f .cfa: $rsp 8 +
STACK CFI cc80 .cfa: $rsp 80 +
STACK CFI INIT cd00 522 .cfa: $rsp 8 + .ra: .cfa -8 + ^
STACK CFI cd02 $r15: .cfa -16 + ^ .cfa: $rsp 16 +
STACK CFI cd04 $r14: .cfa -24 + ^ .cfa: $rsp 24 +
STACK CFI cd06 $r13: .cfa -32 + ^ .cfa: $rsp 32 +
STACK CFI cd08 $r12: .cfa -40 + ^ .cfa: $rsp 40 +
STACK CFI cd09 $rbp: .cfa -48 + ^ .cfa: $rsp 48 +
STACK CFI cd0d $rbx: .cfa -56 + ^ .cfa: $rsp 56 +
STACK CFI cd17 .cfa: $rsp 400 +
STACK CFI cf66 .cfa: $rsp 56 +
STACK CFI cf67 .cfa: $rsp 48 +
STACK CFI cf68 .cfa: $rsp 40 +
STACK CFI cf6a .cfa: $rsp 32 +
STACK CFI cf6c .cfa: $rsp 24 +
STACK CFI cf6e .cfa: $rsp 16 +
STACK CFI cf70 .cfa: $rsp 8 +
STACK CFI cf71 .cfa: $rsp 400 +
STACK CFI INIT d230 ba .cfa: $rsp 8 + .ra: .cfa -8 + ^
STACK CFI d232 $r15: .cfa -16 + ^ .cfa: $rsp 16 +
STACK CFI d234 $r14: .cfa -24 + ^ .cfa: $rsp 24 +
STACK CFI d239 $r13: .cfa -32 + ^ .cfa: $rsp 32 +
STACK CFI d23b $r12: .cfa -40 + ^ .cfa: $rsp 40 +
STACK CFI d23c $rbp: .cfa -48 + ^ .cfa: $rsp 48 +
STACK CFI d23d $rbx: .cfa -56 + ^ .cfa: $rsp 56 +
STACK CFI d241 .cfa: $rsp 64 +
STACK CFI d2df .cfa: $rsp 56 +
STACK CFI d2e0 .cfa: $rsp 48 +
STACK CFI d2e1 .cfa: $rsp 40 +
STACK CFI d2e3 .cfa: $rsp 32 +
STACK CFI d2e5 .cfa: $rsp 24 +
STACK CFI d2e7 .cfa: $rsp 16 +
STACK CFI d2e9 .cfa: $rsp 8 +
STACK CFI INIT d2f0 20 .cfa: $rsp 8 + .ra: .cfa -8 + ^
STACK CFI d2f1 $rbx: .cfa -16 + ^ .cfa: $rsp 16 +
STACK CFI d30f .cfa: $rsp 8 +
STACK CFI INIT d900 2e7 .cfa: $rsp 8 + .ra: .cfa -8 + ^
STACK CFI d902 $r15: .cfa -16 + ^ .cfa: $rsp 16 +
STACK CFI d904 $r14: .cfa -24 + ^ .cfa: $rsp 24 +
STACK CFI d909 $r13: .cfa -32 + ^ .cfa: $rsp 32 +
STACK CFI d90b $r12: .cfa -40 + ^ .cfa: $rsp 40 +
STACK CFI d90c $rbp: .cfa -48 + ^ .cfa: $rsp 48 +
STACK CFI d910 $rbx: .cfa -56 + ^ .cfa: $rsp 56 +
STACK CFI d917 .cfa: $rsp 96 +
STACK CFI d94c .cfa: $rsp 56 +
STACK CFI d94d .cfa: $rsp 48 +
STACK CFI d94e .cfa: $rsp 40 +
STACK CFI d950 .cfa: $rsp 32 +
STACK CFI d952 .cfa: $rsp 24 +
STACK CFI d954 .cfa: $rsp 16 +
STACK CFI d956 .cfa: $rsp 8 +
STACK CFI d960 .cfa: $rsp 96 +
STACK CFI INIT d310 37e .cfa: $rsp 8 + .ra: .cfa -8 + ^
STACK CFI d312 $r15: .cfa -16 + ^ .cfa: $rsp 16 +
STACK CFI d31b $r14: .cfa -24 + ^ .cfa: $rsp 24 +
STACK CFI d31d $r13: .cfa -32 + ^ .cfa: $rsp 32 +
STACK CFI d31f $r12: .cfa -40 + ^ .cfa: $rsp 40 +
STACK CFI d320 $rbp: .cfa -48 + ^ .cfa: $rsp 48 +
STACK CFI d321 $rbx: .cfa -56 + ^ .cfa: $rsp 56 +
STACK CFI d32b .cfa: $rsp 384 +
STACK CFI d487 .cfa: $rsp 56 +
STACK CFI d488 .cfa: $rsp 48 +
STACK CFI d489 .cfa: $rsp 40 +
STACK CFI d48b .cfa: $rsp 32 +
STACK CFI d48d .cfa: $rsp 24 +
STACK CFI d48f .cfa: $rsp 16 +
STACK CFI d491 .cfa: $rsp 8 +
STACK CFI d498 .cfa: $rsp 384 +
STACK CFI INIT dbf0 42c .cfa: $rsp 8 + .ra: .cfa -8 + ^
STACK CFI dbf2 $r15: .cfa -16 + ^ .cfa: $rsp 16 +
STACK CFI dbf4 $r14: .cfa -24 + ^ .cfa: $rsp 24 +
STACK CFI dbf9 $r13: .cfa -32 + ^ .cfa: $rsp 32 +
STACK CFI dbfb $r12: .cfa -40 + ^ .cfa: $rsp 40 +
STACK CFI dbfc $rbp: .cfa -48 + ^ .cfa: $rsp 48 +
STACK CFI dbfd $rbx: .cfa -56 + ^ .cfa: $rsp 56 +
STACK CFI dc01 .cfa: $rsp 96 +
STACK CFI dca7 .cfa: $rsp 56 +
STACK CFI dca8 .cfa: $rsp 48 +
STACK CFI dca9 .cfa: $rsp 40 +
STACK CFI dcab .cfa: $rsp 32 +
STACK CFI dcad .cfa: $rsp 24 +
STACK CFI dcaf .cfa: $rsp 16 +
STACK CFI dcb1 .cfa: $rsp 8 +
STACK CFI dcb8 .cfa: $rsp 96 +
STACK CFI dd2f .cfa: $rsp 56 +
STACK CFI dd30 .cfa: $rsp 48 +
STACK CFI dd31 .cfa: $rsp 40 +
STACK CFI dd33 .cfa: $rsp 32 +
STACK CFI dd35 .cfa: $rsp 24 +
STACK CFI dd37 .cfa: $rsp 16 +
STACK CFI dd39 .cfa: $rsp 8 +
STACK CFI dd40 .cfa: $rsp 96 +
STACK CFI de9e .cfa: $rsp 56 +
STACK CFI de9f .cfa: $rsp 48 +
STACK CFI dea0 .cfa: $rsp 40 +
STACK CFI dea2 .cfa: $rsp 32 +
STACK CFI dea4 .cfa: $rsp 24 +
STACK CFI dea6 .cfa: $rsp 16 +
STACK CFI dea8 .cfa: $rsp 8 +
STACK CFI deb0 .cfa: $rsp 96 +
STACK CFI INIT d690 22c .cfa: $rsp 8 + .ra: .cfa -8 + ^
STACK CFI d692 $r15: .cfa -16 + ^ .cfa: $rsp 16 +
STACK CFI d694 $r14: .cfa -24 + ^ .cfa: $rsp 24 +
STACK CFI d699 $r13: .cfa -32 + ^ .cfa: $rsp 32 +
STACK CFI d69b $r12: .cfa -40 + ^ .cfa: $rsp 40 +
STACK CFI d69c $rbp: .cfa -48 + ^ .cfa: $rsp 48 +
STACK CFI d69d $rbx: .cfa -56 + ^ .cfa: $rsp 56 +
STACK CFI d6a4 .cfa: $rsp 336 +
STACK CFI d84a .cfa: $rsp 56 +
STACK CFI d84b .cfa: $rsp 48 +
STACK CFI d84c .cfa: $rsp 40 +
STACK CFI d84e .cfa: $rsp 32 +
STACK CFI d850 .cfa: $rsp 24 +
STACK CFI d852 .cfa: $rsp 16 +
STACK CFI d854 .cfa: $rsp 8 +
STACK CFI d858 .cfa: $rsp 336 +
STACK CFI INIT e020 d7 .cfa: $rsp 8 + .ra: .cfa -8 + ^
STACK CFI INIT e100 105 .cfa: $rsp 8 + .ra: .cfa -8 + ^
STACK CFI e101 $rbp: .cfa -16 + ^ .cfa: $rsp 16 +
STACK CFI e105 $rbx: .cfa -24 + ^ .cfa: $rsp 24 +
STACK CFI e189 .cfa: $rsp 16 +
STACK CFI e190 .cfa: $rsp 8 +
STACK CFI e198 .cfa: $rsp 24 +
STACK CFI e1e7 .cfa: $rsp 16 +
STACK CFI e1f3 .cfa: $rsp 8 +
STACK CFI e1f4 .cfa: $rsp 24 +
STACK CFI INIT e210 e6 .cfa: $rsp 8 + .ra: .cfa -8 + ^
STACK CFI e221 $r12: .cfa -16 + ^ .cfa: $rsp 16 +
STACK CFI e222 $rbp: .cfa -24 + ^ .cfa: $rsp 24 +
STACK CFI e223 $rbx: .cfa -32 + ^ .cfa: $rsp 32 +
STACK CFI e299 $rbx: $rbx .cfa: $rsp 24 +
STACK CFI e29a $rbp: $rbp .cfa: $rsp 16 +
STACK CFI e2a7 $r12: $r12 .cfa: $rsp 8 +
STACK CFI e2b0 $r12: .cfa -16 + ^ $rbp: .cfa -24 + ^ $rbx: .cfa -32 + ^ .cfa: $rsp 32 +
STACK CFI e2bb $rbx: $rbx .cfa: $rsp 24 +
STACK CFI e2bc $rbp: $rbp .cfa: $rsp 16 +
STACK CFI e2c9 $r12: $r12 .cfa: $rsp 8 +
STACK CFI e2d0 $r12: .cfa -16 + ^ $rbp: .cfa -24 + ^ $rbx: .cfa -32 + ^ .cfa: $rsp 32 +
STACK CFI e2d1 $rbx: $rbx .cfa: $rsp 24 +
STACK CFI e2d2 $rbp: $rbp .cfa: $rsp 16 +
STACK CFI e2dc $r12: $r12 .cfa: $rsp 8 +
STACK CFI e2dd $r12: .cfa -16 + ^ $rbp: .cfa -24 + ^ $rbx: .cfa -32 + ^ .cfa: $rsp 32 +
STACK CFI e2de $rbx: $rbx .cfa: $rsp 24 +
STACK CFI e2df $rbp: $rbp .cfa: $rsp 16 +
STACK CFI e2ec $r12: $r12 .cfa: $rsp 8 +
STACK CFI INIT e300 1fa .cfa: $rsp 8 + .ra: .cfa -8 + ^
STACK CFI e302 $r13: .cfa -16 + ^ .cfa: $rsp 16 +
STACK CFI e307 $r12: .cfa -24 + ^ .cfa: $rsp 24 +
STACK CFI e30b $rbp: .cfa -32 + ^ .cfa: $rsp 32 +
STACK CFI e30f $rbx: .cfa -40 + ^ .cfa: $rsp 40 +
STACK CFI e3de .cfa: $rsp 32 +
STACK CFI e3e7 .cfa: $rsp 24 +
STACK CFI e3e9 .cfa: $rsp 16 +
STACK CFI e3eb .cfa: $rsp 8 +
STACK CFI e3f0 .cfa: $rsp 40 +
STACK CFI e43a .cfa: $rsp 32 +
STACK CFI e446 .cfa: $rsp 24 +
STACK CFI e448 .cfa: $rsp 16 +
STACK CFI e44a .cfa: $rsp 8 +
STACK CFI e44b .cfa: $rsp 40 +
STACK CFI e44c .cfa: $rsp 32 +
STACK CFI e458 .cfa: $rsp 24 +
STACK CFI e45a .cfa: $rsp 16 +
STACK CFI e45c .cfa: $rsp 8 +
STACK CFI e45d .cfa: $rsp 40 +
STACK CFI e491 .cfa: $rsp 32 +
STACK CFI e4a0 .cfa: $rsp 24 +
STACK CFI e4a2 .cfa: $rsp 16 +
STACK CFI e4a4 .cfa: $rsp 8 +
STACK CFI e4a5 .cfa: $rsp 40 +
STACK CFI INIT e500 2b .cfa: $rsp 8 + .ra: .cfa -8 + ^
STACK CFI INIT e530 27f .cfa: $rsp 8 + .ra: .cfa -8 + ^
STACK CFI e532 $r15: .cfa -16 + ^ .cfa: $rsp 16 +
STACK CFI e534 $r14: .cfa -24 + ^ .cfa: $rsp 24 +
STACK CFI e536 $r13: .cfa -32 + ^ .cfa: $rsp 32 +
STACK CFI e538 $r12: .cfa -40 + ^ .cfa: $rsp 40 +
STACK CFI e539 $rbp: .cfa -48 + ^ .cfa: $rsp 48 +
STACK CFI e53a $rbx: .cfa -56 + ^ .cfa: $rsp 56 +
STACK CFI e53e .cfa: $rsp 96 +
STACK CFI e6a4 .cfa: $rsp 56 +
STACK CFI e6a5 .cfa: $rsp 48 +
STACK CFI e6a6 .cfa: $rsp 40 +
STACK CFI e6a8 .cfa: $rsp 32 +
STACK CFI e6aa .cfa: $rsp 24 +
STACK CFI e6ac .cfa: $rsp 16 +
STACK CFI e6ae .cfa: $rsp 8 +
STACK CFI e6b0 .cfa: $rsp 96 +
STACK CFI INIT e7b0 1c3 .cfa: $rsp 8 + .ra: .cfa -8 + ^
STACK CFI e7b2 $r14: .cfa -16 + ^ .cfa: $rsp 16 +
STACK CFI e7b9 $r13: .cfa -24 + ^ .cfa: $rsp 24 +
STACK CFI e7be $r12: .cfa -32 + ^ .cfa: $rsp 32 +
STACK CFI e7bf $rbp: .cfa -40 + ^ .cfa: $rsp 40 +
STACK CFI e7c0 $rbx: .cfa -48 + ^ .cfa: $rsp 48 +
STACK CFI e8fc .cfa: $rsp 40 +
STACK CFI e8fd .cfa: $rsp 32 +
STACK CFI e8ff .cfa: $rsp 24 +
STACK CFI e901 .cfa: $rsp 16 +
STACK CFI e903 .cfa: $rsp 8 +
STACK CFI e908 .cfa: $rsp 48 +
STACK CFI e92c .cfa: $rsp 40 +
STACK CFI e92d .cfa: $rsp 32 +
STACK CFI e92f .cfa: $rsp 24 +
STACK CFI e931 .cfa: $rsp 16 +
STACK CFI e933 .cfa: $rsp 8 +
STACK CFI e934 .cfa: $rsp 48 +
STACK CFI e94a .cfa: $rsp 40 +
STACK CFI e94b .cfa: $rsp 32 +
STACK CFI e94d .cfa: $rsp 24 +
STACK CFI e94f .cfa: $rsp 16 +
STACK CFI e951 .cfa: $rsp 8 +
STACK CFI e952 .cfa: $rsp 48 +
STACK CFI INIT e980 2a7 .cfa: $rsp 8 + .ra: .cfa -8 + ^
STACK CFI e982 $r15: .cfa -16 + ^ .cfa: $rsp 16 +
STACK CFI e984 $r14: .cfa -24 + ^ .cfa: $rsp 24 +
STACK CFI e986 $r13: .cfa -32 + ^ .cfa: $rsp 32 +
STACK CFI e988 $r12: .cfa -40 + ^ .cfa: $rsp 40 +
STACK CFI e989 $rbp: .cfa -48 + ^ .cfa: $rsp 48 +
STACK CFI e98a $rbx: .cfa -56 + ^ .cfa: $rsp 56 +
STACK CFI e98e .cfa: $rsp 104 +
STACK CFI eb2c .cfa: $rsp 56 +
STACK CFI eb2d .cfa: $rsp 48 +
STACK CFI eb2e .cfa: $rsp 40 +
STACK CFI eb30 .cfa: $rsp 32 +
STACK CFI eb32 .cfa: $rsp 24 +
STACK CFI eb34 .cfa: $rsp 16 +
STACK CFI eb36 .cfa: $rsp 8 +
STACK CFI eb40 .cfa: $rsp 104 +
STACK CFI INIT ec30 1f .cfa: $rsp 8 + .ra: .cfa -8 + ^
STACK CFI ec3b .cfa: $rsp 16 +
STACK CFI ec4e .cfa: $rsp 8 +
STACK CFI INIT ec50 5 .cfa: $rsp 8 + .ra: .cfa -8 + ^
STACK CFI INIT ec60 44f .cfa: $rsp 8 + .ra: .cfa -8 + ^
STACK CFI ec62 $r15: .cfa -16 + ^ .cfa: $rsp 16 +
STACK CFI ec64 $r14: .cfa -24 + ^ .cfa: $rsp 24 +
STACK CFI ec66 $r13: .cfa -32 + ^ .cfa: $rsp 32 +
STACK CFI ec68 $r12: .cfa -40 + ^ .cfa: $rsp 40 +
STACK CFI ec69 $rbp: .cfa -48 + ^ .cfa: $rsp 48 +
STACK CFI ec6a $rbx: .cfa -56 + ^ .cfa: $rsp 56 +
STACK CFI ec71 .cfa: $rsp 96 +
STACK CFI ecb7 .cfa: $rsp 56 +
STACK CFI ecba .cfa: $rsp 48 +
STACK CFI ecbb .cfa: $rsp 40 +
STACK CFI ecbd .cfa: $rsp 32 +
STACK CFI ecbf .cfa: $rsp 24 +
STACK CFI ecc1 .cfa: $rsp 16 +
STACK CFI ecc3 .cfa: $rsp 8 +
STACK CFI ecc8 .cfa: $rsp 96 +
STACK CFI edfe .cfa: $rsp 56 +
STACK CFI edff .cfa: $rsp 48 +
STACK CFI ee00 .cfa: $rsp 40 +
STACK CFI ee02 .cfa: $rsp 32 +
STACK CFI ee04 .cfa: $rsp 24 +
STACK CFI ee06 .cfa: $rsp 16 +
STACK CFI ee08 .cfa: $rsp 8 +
STACK CFI ee09 .cfa: $rsp 96 +
STACK CFI INIT f0b0 26f .cfa: $rsp 8 + .ra: .cfa -8 + ^
STACK CFI f0b2 $r14: .cfa -16 + ^ .cfa: $rsp 16 +
STACK CFI f0b7 $r13: .cfa -24 + ^ .cfa: $rsp 24 +
STACK CFI f0b9 $r12: .cfa -32 + ^ .cfa: $rsp 32 +
STACK CFI f0ba $rbp: .cfa -40 + ^ .cfa: $rsp 40 +
STACK CFI f0bb $rbx: .cfa -48 + ^ .cfa: $rsp 48 +
STACK CFI f0fa .cfa: $rsp 40 +
STACK CFI f0fb .cfa: $rsp 32 +
STACK CFI f0fd .cfa: $rsp 24 +
STACK CFI f0ff .cfa: $rsp 16 +
STACK CFI f103 .cfa: $rsp 8 +
STACK CFI f108 .cfa: $rsp 48 +
STACK CFI f1a6 .cfa: $rsp 40 +
STACK CFI f1a7 .cfa: $rsp 32 +
STACK CFI f1a9 .cfa: $rsp 24 +
STACK CFI f1ab .cfa: $rsp 16 +
STACK CFI f1b0 .cfa: $rsp 8 +
STACK CFI f1b1 .cfa: $rsp 48 +
STACK CFI INIT f320 13 .cfa: $rsp 8 + .ra: .cfa -8 + ^
STACK CFI f324 .cfa: $rsp 32 +
STACK CFI f332 .cfa: $rsp 8 +
STACK CFI INIT f340 1ff .cfa: $rsp 8 + .ra: .cfa -8 + ^
STACK CFI f342 $r14: .cfa -16 + ^ .cfa: $rsp 16 +
STACK CFI f344 $r13: .cfa -24 + ^ .cfa: $rsp 24 +
STACK CFI f346 $r12: .cfa -32 + ^ .cfa: $rsp 32 +
STACK CFI f34a $rbp: .cfa -40 + ^ .cfa: $rsp 40 +
STACK CFI f34b $rbx: .cfa -48 + ^ .cfa: $rsp 48 +
STACK CFI f357 .cfa: $rsp 96 +
STACK CFI f3d4 .cfa: $rsp 48 +
STACK CFI f3d5 .cfa: $rsp 40 +
STACK CFI f3d6 .cfa: $rsp 32 +
STACK CFI f3d8 .cfa: $rsp 24 +
STACK CFI f3da .cfa: $rsp 16 +
STACK CFI f3dc .cfa: $rsp 8 +
STACK CFI f3e0 .cfa: $rsp 96 +
STACK CFI f536 .cfa: $rsp 48 +
STACK CFI f537 .cfa: $rsp 40 +
STACK CFI f538 .cfa: $rsp 32 +
STACK CFI f53a .cfa: $rsp 24 +
STACK CFI f53c .cfa: $rsp 16 +
STACK CFI f53e .cfa: $rsp 8 +
STACK CFI INIT f540 5f .cfa: $rsp 8 + .ra: .cfa -8 + ^
STACK CFI f541 $rbp: .cfa -16 + ^ .cfa: $rsp 16 +
STACK CFI f547 $rbx: .cfa -24 + ^ .cfa: $rsp 24 +
STACK CFI f54b .cfa: $rsp 64 +
STACK CFI f581 .cfa: $rsp 24 +
STACK CFI f582 .cfa: $rsp 16 +
STACK CFI f583 .cfa: $rsp 8 +
STACK CFI f588 .cfa: $rsp 64 +
STACK CFI INIT f5a0 11c .cfa: $rsp 8 + .ra: .cfa -8 + ^
STACK CFI f5a2 $r13: .cfa -16 + ^ .cfa: $rsp 16 +
STACK CFI f5a4 $r12: .cfa -24 + ^ .cfa: $rsp 24 +
STACK CFI f5a5 $rbp: .cfa -32 + ^ .cfa: $rsp 32 +
STACK CFI f5a6 $rbx: .cfa -40 + ^ .cfa: $rsp 40 +
STACK CFI f5aa .cfa: $rsp 80 +
STACK CFI f69f .cfa: $rsp 40 +
STACK CFI f6a0 .cfa: $rsp 32 +
STACK CFI f6a1 .cfa: $rsp 24 +
STACK CFI f6a3 .cfa: $rsp 16 +
STACK CFI f6a5 .cfa: $rsp 8 +
STACK CFI f6a6 .cfa: $rsp 80 +
STACK CFI INIT f6c0 10 .cfa: $rsp 8 + .ra: .cfa -8 + ^
STACK CFI INIT f6d0 4b .cfa: $rsp 8 + .ra: .cfa -8 + ^
STACK CFI f6d1 $rbp: .cfa -16 + ^ .cfa: $rsp 16 +
STACK CFI f6d2 $rbx: .cfa -24 + ^ .cfa: $rsp 24 +
STACK CFI f6d9 .cfa: $rsp 32 +
STACK CFI f70c .cfa: $rsp 24 +
STACK CFI f70d .cfa: $rsp 16 +
STACK CFI f70e .cfa: $rsp 8 +
STACK CFI f710 .cfa: $rsp 32 +
STACK CFI INIT f720 5 .cfa: $rsp 8 + .ra: .cfa -8 + ^
STACK CFI INIT f730 17f .cfa: $rsp 8 + .ra: .cfa -8 + ^
STACK CFI f732 $r15: .cfa -16 + ^ .cfa: $rsp 16 +
STACK CFI f734 $r14: .cfa -24 + ^ .cfa: $rsp 24 +
STACK CFI f736 $r13: .cfa -32 + ^ .cfa: $rsp 32 +
STACK CFI f73b $r12: .cfa -40 + ^ .cfa: $rsp 40 +
STACK CFI f73f $rbp: .cfa -48 + ^ .cfa: $rsp 48 +
STACK CFI f743 $rbx: .cfa -56 + ^ .cfa: $rsp 56 +
STACK CFI f74a .cfa: $rsp 208 +
STACK CFI f874 .cfa: $rsp 56 +
STACK CFI f877 .cfa: $rsp 48 +
STACK CFI f878 .cfa: $rsp 40 +
STACK CFI f87a .cfa: $rsp 32 +
STACK CFI f87c .cfa: $rsp 24 +
STACK CFI f87e .cfa: $rsp 16 +
STACK CFI f880 .cfa: $rsp 8 +
STACK CFI f888 .cfa: $rsp 208 +
STACK CFI INIT f8b0 14 .cfa: $rsp 8 + .ra: .cfa -8 + ^
STACK CFI INIT f8d0 40 .cfa: $rsp 8 + .ra: .cfa -8 + ^
STACK CFI f8d6 $rbx: .cfa -16 + ^ .cfa: $rsp 16 +
STACK CFI f8f1 .cfa: $rsp 8 +
STACK CFI f8f8 .cfa: $rsp 16 +
STACK CFI f90f .cfa: $rsp 8 +
STACK CFI INIT f910 65 .cfa: $rsp 8 + .ra: .cfa -8 + ^
STACK CFI f912 $r15: .cfa -16 + ^ .cfa: $rsp 16 +
STACK CFI f917 $r14: .cfa -24 + ^ .cfa: $rsp 24 +
STACK CFI f91c $r13: .cfa -32 + ^ .cfa: $rsp 32 +
STACK CFI f921 $r12: .cfa -40 + ^ .cfa: $rsp 40 +
STACK CFI f929 $rbp: .cfa -48 + ^ .cfa: $rsp 48 +
STACK CFI f931 $rbx: .cfa -56 + ^ .cfa: $rsp 56 +
STACK CFI f93e .cfa: $rsp 64 +
STACK CFI f96a .cfa: $rsp 56 +
STACK CFI f96b .cfa: $rsp 48 +
STACK CFI f96c .cfa: $rsp 40 +
STACK CFI f96e .cfa: $rsp 32 +
STACK CFI f970 .cfa: $rsp 24 +
STACK CFI f972 .cfa: $rsp 16 +
STACK CFI f974 .cfa: $rsp 8 +
STACK CFI INIT f980 2 .cfa: $rsp 8 + .ra: .cfa -8 + ^
